
hello2.exe:     file format pei-x86-64


Disassembly of section .text:

0000000140001000 <__mingw_invalidParameterHandler>:
   140001000:	c3                   	ret
   140001001:	66 66 2e 0f 1f 84 00 	data16 cs nop WORD PTR [rax+rax*1+0x0]
   140001008:	00 00 00 00 
   14000100c:	0f 1f 40 00          	nop    DWORD PTR [rax+0x0]

0000000140001010 <pre_c_init>:
   140001010:	48 83 ec 28          	sub    rsp,0x28
   140001014:	48 8b 05 85 87 00 00 	mov    rax,QWORD PTR [rip+0x8785]        # 1400097a0 <.refptr.__mingw_initltsdrot_force>
   14000101b:	31 c9                	xor    ecx,ecx
   14000101d:	c7 00 01 00 00 00    	mov    DWORD PTR [rax],0x1
   140001023:	48 8b 05 86 87 00 00 	mov    rax,QWORD PTR [rip+0x8786]        # 1400097b0 <.refptr.__mingw_initltsdyn_force>
   14000102a:	c7 00 01 00 00 00    	mov    DWORD PTR [rax],0x1
   140001030:	48 8b 05 89 87 00 00 	mov    rax,QWORD PTR [rip+0x8789]        # 1400097c0 <.refptr.__mingw_initltssuo_force>
   140001037:	c7 00 01 00 00 00    	mov    DWORD PTR [rax],0x1
   14000103d:	48 8b 05 fc 86 00 00 	mov    rax,QWORD PTR [rip+0x86fc]        # 140009740 <.refptr.__image_base__>
   140001044:	66 81 38 4d 5a       	cmp    WORD PTR [rax],0x5a4d
   140001049:	75 0f                	jne    14000105a <pre_c_init+0x4a>
   14000104b:	48 63 50 3c          	movsxd rdx,DWORD PTR [rax+0x3c]
   14000104f:	48 01 d0             	add    rax,rdx
   140001052:	81 38 50 45 00 00    	cmp    DWORD PTR [rax],0x4550
   140001058:	74 66                	je     1400010c0 <pre_c_init+0xb0>
   14000105a:	48 8b 05 2f 87 00 00 	mov    rax,QWORD PTR [rip+0x872f]        # 140009790 <.refptr.__mingw_app_type>
   140001061:	89 0d b9 bf 00 00    	mov    DWORD PTR [rip+0xbfb9],ecx        # 14000d020 <managedapp>
   140001067:	8b 00                	mov    eax,DWORD PTR [rax]
   140001069:	85 c0                	test   eax,eax
   14000106b:	74 43                	je     1400010b0 <pre_c_init+0xa0>
   14000106d:	b9 02 00 00 00       	mov    ecx,0x2
   140001072:	e8 e1 6a 00 00       	call   140007b58 <__set_app_type>
   140001077:	e8 64 64 00 00       	call   1400074e0 <__p__fmode>
   14000107c:	48 8b 15 ed 87 00 00 	mov    rdx,QWORD PTR [rip+0x87ed]        # 140009870 <.refptr._fmode>
   140001083:	8b 12                	mov    edx,DWORD PTR [rdx]
   140001085:	89 10                	mov    DWORD PTR [rax],edx
   140001087:	e8 64 64 00 00       	call   1400074f0 <__p__commode>
   14000108c:	48 8b 15 bd 87 00 00 	mov    rdx,QWORD PTR [rip+0x87bd]        # 140009850 <.refptr._commode>
   140001093:	8b 12                	mov    edx,DWORD PTR [rdx]
   140001095:	89 10                	mov    DWORD PTR [rax],edx
   140001097:	e8 f4 05 00 00       	call   140001690 <_setargv>
   14000109c:	48 8b 05 4d 86 00 00 	mov    rax,QWORD PTR [rip+0x864d]        # 1400096f0 <.refptr._MINGW_INSTALL_DEBUG_MATHERR>
   1400010a3:	83 38 01             	cmp    DWORD PTR [rax],0x1
   1400010a6:	74 50                	je     1400010f8 <pre_c_init+0xe8>
   1400010a8:	31 c0                	xor    eax,eax
   1400010aa:	48 83 c4 28          	add    rsp,0x28
   1400010ae:	c3                   	ret
   1400010af:	90                   	nop
   1400010b0:	b9 01 00 00 00       	mov    ecx,0x1
   1400010b5:	e8 9e 6a 00 00       	call   140007b58 <__set_app_type>
   1400010ba:	eb bb                	jmp    140001077 <pre_c_init+0x67>
   1400010bc:	0f 1f 40 00          	nop    DWORD PTR [rax+0x0]
   1400010c0:	0f b7 50 18          	movzx  edx,WORD PTR [rax+0x18]
   1400010c4:	66 81 fa 0b 01       	cmp    dx,0x10b
   1400010c9:	74 45                	je     140001110 <pre_c_init+0x100>
   1400010cb:	66 81 fa 0b 02       	cmp    dx,0x20b
   1400010d0:	75 88                	jne    14000105a <pre_c_init+0x4a>
   1400010d2:	83 b8 84 00 00 00 0e 	cmp    DWORD PTR [rax+0x84],0xe
   1400010d9:	0f 86 7b ff ff ff    	jbe    14000105a <pre_c_init+0x4a>
   1400010df:	8b 90 f8 00 00 00    	mov    edx,DWORD PTR [rax+0xf8]
   1400010e5:	31 c9                	xor    ecx,ecx
   1400010e7:	85 d2                	test   edx,edx
   1400010e9:	0f 95 c1             	setne  cl
   1400010ec:	e9 69 ff ff ff       	jmp    14000105a <pre_c_init+0x4a>
   1400010f1:	0f 1f 80 00 00 00 00 	nop    DWORD PTR [rax+0x0]
   1400010f8:	48 8b 0d 91 87 00 00 	mov    rcx,QWORD PTR [rip+0x8791]        # 140009890 <.refptr._matherr>
   1400010ff:	e8 fc 0c 00 00       	call   140001e00 <__mingw_setusermatherr>
   140001104:	31 c0                	xor    eax,eax
   140001106:	48 83 c4 28          	add    rsp,0x28
   14000110a:	c3                   	ret
   14000110b:	0f 1f 44 00 00       	nop    DWORD PTR [rax+rax*1+0x0]
   140001110:	83 78 74 0e          	cmp    DWORD PTR [rax+0x74],0xe
   140001114:	0f 86 40 ff ff ff    	jbe    14000105a <pre_c_init+0x4a>
   14000111a:	44 8b 80 e8 00 00 00 	mov    r8d,DWORD PTR [rax+0xe8]
   140001121:	31 c9                	xor    ecx,ecx
   140001123:	45 85 c0             	test   r8d,r8d
   140001126:	0f 95 c1             	setne  cl
   140001129:	e9 2c ff ff ff       	jmp    14000105a <pre_c_init+0x4a>
   14000112e:	66 90                	xchg   ax,ax

0000000140001130 <pre_cpp_init>:
   140001130:	48 83 ec 38          	sub    rsp,0x38
   140001134:	48 8b 05 65 87 00 00 	mov    rax,QWORD PTR [rip+0x8765]        # 1400098a0 <.refptr._newmode>
   14000113b:	4c 8d 05 e6 be 00 00 	lea    r8,[rip+0xbee6]        # 14000d028 <envp>
   140001142:	48 8d 15 e7 be 00 00 	lea    rdx,[rip+0xbee7]        # 14000d030 <argv>
   140001149:	48 8d 0d e8 be 00 00 	lea    rcx,[rip+0xbee8]        # 14000d038 <argc>
   140001150:	8b 00                	mov    eax,DWORD PTR [rax]
   140001152:	89 05 c0 be 00 00    	mov    DWORD PTR [rip+0xbec0],eax        # 14000d018 <startinfo>
   140001158:	48 8b 05 01 87 00 00 	mov    rax,QWORD PTR [rip+0x8701]        # 140009860 <.refptr._dowildcard>
   14000115f:	44 8b 08             	mov    r9d,DWORD PTR [rax]
   140001162:	48 8d 05 af be 00 00 	lea    rax,[rip+0xbeaf]        # 14000d018 <startinfo>
   140001169:	48 89 44 24 20       	mov    QWORD PTR [rsp+0x20],rax
   14000116e:	e8 d5 69 00 00       	call   140007b48 <__getmainargs>
   140001173:	90                   	nop
   140001174:	48 83 c4 38          	add    rsp,0x38
   140001178:	c3                   	ret
   140001179:	0f 1f 80 00 00 00 00 	nop    DWORD PTR [rax+0x0]

0000000140001180 <__tmainCRTStartup>:
   140001180:	41 54                	push   r12
   140001182:	55                   	push   rbp
   140001183:	57                   	push   rdi
   140001184:	56                   	push   rsi
   140001185:	53                   	push   rbx
   140001186:	48 81 ec 90 00 00 00 	sub    rsp,0x90
   14000118d:	b9 0d 00 00 00       	mov    ecx,0xd
   140001192:	31 c0                	xor    eax,eax
   140001194:	48 8d 54 24 20       	lea    rdx,[rsp+0x20]
   140001199:	48 89 d7             	mov    rdi,rdx
   14000119c:	f3 48 ab             	rep stos QWORD PTR es:[rdi],rax
   14000119f:	48 8b 3d ea 85 00 00 	mov    rdi,QWORD PTR [rip+0x85ea]        # 140009790 <.refptr.__mingw_app_type>
   1400011a6:	44 8b 0f             	mov    r9d,DWORD PTR [rdi]
   1400011a9:	45 85 c9             	test   r9d,r9d
   1400011ac:	0f 85 9e 02 00 00    	jne    140001450 <__tmainCRTStartup+0x2d0>
   1400011b2:	65 48 8b 04 25 30 00 	mov    rax,QWORD PTR gs:0x30
   1400011b9:	00 00 
   1400011bb:	48 8b 1d 1e 86 00 00 	mov    rbx,QWORD PTR [rip+0x861e]        # 1400097e0 <.refptr.__native_startup_lock>
   1400011c2:	48 8b 70 08          	mov    rsi,QWORD PTR [rax+0x8]
   1400011c6:	31 ed                	xor    ebp,ebp
   1400011c8:	4c 8b 25 4d d0 00 00 	mov    r12,QWORD PTR [rip+0xd04d]        # 14000e21c <__imp_Sleep>
   1400011cf:	eb 18                	jmp    1400011e9 <__tmainCRTStartup+0x69>
   1400011d1:	0f 1f 80 00 00 00 00 	nop    DWORD PTR [rax+0x0]
   1400011d8:	48 39 c6             	cmp    rsi,rax
   1400011db:	0f 84 0f 02 00 00    	je     1400013f0 <__tmainCRTStartup+0x270>
   1400011e1:	b9 e8 03 00 00       	mov    ecx,0x3e8
   1400011e6:	41 ff d4             	call   r12
   1400011e9:	48 89 e8             	mov    rax,rbp
   1400011ec:	f0 48 0f b1 33       	lock cmpxchg QWORD PTR [rbx],rsi
   1400011f1:	48 85 c0             	test   rax,rax
   1400011f4:	75 e2                	jne    1400011d8 <__tmainCRTStartup+0x58>
   1400011f6:	48 8b 35 f3 85 00 00 	mov    rsi,QWORD PTR [rip+0x85f3]        # 1400097f0 <.refptr.__native_startup_state>
   1400011fd:	31 ed                	xor    ebp,ebp
   1400011ff:	8b 06                	mov    eax,DWORD PTR [rsi]
   140001201:	83 f8 01             	cmp    eax,0x1
   140001204:	0f 84 fd 01 00 00    	je     140001407 <__tmainCRTStartup+0x287>
   14000120a:	8b 06                	mov    eax,DWORD PTR [rsi]
   14000120c:	85 c0                	test   eax,eax
   14000120e:	0f 84 6c 02 00 00    	je     140001480 <__tmainCRTStartup+0x300>
   140001214:	c7 05 fe bd 00 00 01 	mov    DWORD PTR [rip+0xbdfe],0x1        # 14000d01c <has_cctor>
   14000121b:	00 00 00 
   14000121e:	8b 06                	mov    eax,DWORD PTR [rsi]
   140001220:	83 f8 01             	cmp    eax,0x1
   140001223:	0f 84 f3 01 00 00    	je     14000141c <__tmainCRTStartup+0x29c>
   140001229:	85 ed                	test   ebp,ebp
   14000122b:	0f 84 0c 02 00 00    	je     14000143d <__tmainCRTStartup+0x2bd>
   140001231:	48 8b 05 f8 84 00 00 	mov    rax,QWORD PTR [rip+0x84f8]        # 140009730 <.refptr.__dyn_tls_init_callback>
   140001238:	48 8b 00             	mov    rax,QWORD PTR [rax]
   14000123b:	48 85 c0             	test   rax,rax
   14000123e:	74 0c                	je     14000124c <__tmainCRTStartup+0xcc>
   140001240:	45 31 c0             	xor    r8d,r8d
   140001243:	ba 02 00 00 00       	mov    edx,0x2
   140001248:	31 c9                	xor    ecx,ecx
   14000124a:	ff d0                	call   rax
   14000124c:	e8 0f 08 00 00       	call   140001a60 <_pei386_runtime_relocator>
   140001251:	48 8b 0d 28 86 00 00 	mov    rcx,QWORD PTR [rip+0x8628]        # 140009880 <.refptr._gnu_exception_handler>
   140001258:	ff 15 b6 cf 00 00    	call   QWORD PTR [rip+0xcfb6]        # 14000e214 <__imp_SetUnhandledExceptionFilter>
   14000125e:	48 8b 15 6b 85 00 00 	mov    rdx,QWORD PTR [rip+0x856b]        # 1400097d0 <.refptr.__mingw_oldexcpt_handler>
   140001265:	48 8d 0d 94 fd ff ff 	lea    rcx,[rip+0xfffffffffffffd94]        # 140001000 <__mingw_invalidParameterHandler>
   14000126c:	48 89 02             	mov    QWORD PTR [rdx],rax
   14000126f:	e8 7c 63 00 00       	call   1400075f0 <_set_invalid_parameter_handler>
   140001274:	e8 f7 05 00 00       	call   140001870 <_fpreset>
   140001279:	48 8b 05 c0 84 00 00 	mov    rax,QWORD PTR [rip+0x84c0]        # 140009740 <.refptr.__image_base__>
   140001280:	48 89 05 89 bd 00 00 	mov    QWORD PTR [rip+0xbd89],rax        # 14000d010 <__mingw_winmain_hInstance>
   140001287:	e8 74 62 00 00       	call   140007500 <__p__acmdln>
   14000128c:	31 c9                	xor    ecx,ecx
   14000128e:	48 8b 00             	mov    rax,QWORD PTR [rax]
   140001291:	48 85 c0             	test   rax,rax
   140001294:	75 1c                	jne    1400012b2 <__tmainCRTStartup+0x132>
   140001296:	eb 58                	jmp    1400012f0 <__tmainCRTStartup+0x170>
   140001298:	0f 1f 84 00 00 00 00 	nop    DWORD PTR [rax+rax*1+0x0]
   14000129f:	00 
   1400012a0:	84 d2                	test   dl,dl
   1400012a2:	74 45                	je     1400012e9 <__tmainCRTStartup+0x169>
   1400012a4:	83 e1 01             	and    ecx,0x1
   1400012a7:	74 27                	je     1400012d0 <__tmainCRTStartup+0x150>
   1400012a9:	b9 01 00 00 00       	mov    ecx,0x1
   1400012ae:	48 83 c0 01          	add    rax,0x1
   1400012b2:	0f b6 10             	movzx  edx,BYTE PTR [rax]
   1400012b5:	80 fa 20             	cmp    dl,0x20
   1400012b8:	7e e6                	jle    1400012a0 <__tmainCRTStartup+0x120>
   1400012ba:	41 89 c8             	mov    r8d,ecx
   1400012bd:	41 83 f0 01          	xor    r8d,0x1
   1400012c1:	80 fa 22             	cmp    dl,0x22
   1400012c4:	41 0f 44 c8          	cmove  ecx,r8d
   1400012c8:	eb e4                	jmp    1400012ae <__tmainCRTStartup+0x12e>
   1400012ca:	66 0f 1f 44 00 00    	nop    WORD PTR [rax+rax*1+0x0]
   1400012d0:	84 d2                	test   dl,dl
   1400012d2:	74 15                	je     1400012e9 <__tmainCRTStartup+0x169>
   1400012d4:	0f 1f 40 00          	nop    DWORD PTR [rax+0x0]
   1400012d8:	0f b6 50 01          	movzx  edx,BYTE PTR [rax+0x1]
   1400012dc:	48 83 c0 01          	add    rax,0x1
   1400012e0:	84 d2                	test   dl,dl
   1400012e2:	74 05                	je     1400012e9 <__tmainCRTStartup+0x169>
   1400012e4:	80 fa 20             	cmp    dl,0x20
   1400012e7:	7e ef                	jle    1400012d8 <__tmainCRTStartup+0x158>
   1400012e9:	48 89 05 18 bd 00 00 	mov    QWORD PTR [rip+0xbd18],rax        # 14000d008 <__mingw_winmain_lpCmdLine>
   1400012f0:	44 8b 07             	mov    r8d,DWORD PTR [rdi]
   1400012f3:	45 85 c0             	test   r8d,r8d
   1400012f6:	74 16                	je     14000130e <__tmainCRTStartup+0x18e>
   1400012f8:	b8 0a 00 00 00       	mov    eax,0xa
   1400012fd:	f6 44 24 5c 01       	test   BYTE PTR [rsp+0x5c],0x1
   140001302:	0f 85 d8 00 00 00    	jne    1400013e0 <__tmainCRTStartup+0x260>
   140001308:	89 05 f2 6c 00 00    	mov    DWORD PTR [rip+0x6cf2],eax        # 140008000 <__data_start__>
   14000130e:	8b 1d 24 bd 00 00    	mov    ebx,DWORD PTR [rip+0xbd24]        # 14000d038 <argc>
   140001314:	44 8d 63 01          	lea    r12d,[rbx+0x1]
   140001318:	4d 63 e4             	movsxd r12,r12d
   14000131b:	49 c1 e4 03          	shl    r12,0x3
   14000131f:	4c 89 e1             	mov    rcx,r12
   140001322:	e8 b9 68 00 00       	call   140007be0 <malloc>
   140001327:	48 8b 3d 02 bd 00 00 	mov    rdi,QWORD PTR [rip+0xbd02]        # 14000d030 <argv>
   14000132e:	48 89 c5             	mov    rbp,rax
   140001331:	85 db                	test   ebx,ebx
   140001333:	0f 8e 65 01 00 00    	jle    14000149e <__tmainCRTStartup+0x31e>
   140001339:	49 83 ec 08          	sub    r12,0x8
   14000133d:	31 db                	xor    ebx,ebx
   14000133f:	90                   	nop
   140001340:	48 8b 0c 1f          	mov    rcx,QWORD PTR [rdi+rbx*1]
   140001344:	e8 bf 68 00 00       	call   140007c08 <strlen>
   140001349:	48 8d 70 01          	lea    rsi,[rax+0x1]
   14000134d:	48 89 f1             	mov    rcx,rsi
   140001350:	e8 8b 68 00 00       	call   140007be0 <malloc>
   140001355:	49 89 f0             	mov    r8,rsi
   140001358:	48 89 44 1d 00       	mov    QWORD PTR [rbp+rbx*1+0x0],rax
   14000135d:	48 8b 14 1f          	mov    rdx,QWORD PTR [rdi+rbx*1]
   140001361:	48 89 c1             	mov    rcx,rax
   140001364:	48 83 c3 08          	add    rbx,0x8
   140001368:	e8 7b 68 00 00       	call   140007be8 <memcpy>
   14000136d:	4c 39 e3             	cmp    rbx,r12
   140001370:	75 ce                	jne    140001340 <__tmainCRTStartup+0x1c0>
   140001372:	48 01 eb             	add    rbx,rbp
   140001375:	48 c7 03 00 00 00 00 	mov    QWORD PTR [rbx],0x0
   14000137c:	48 89 2d ad bc 00 00 	mov    QWORD PTR [rip+0xbcad],rbp        # 14000d030 <argv>
   140001383:	e8 e8 02 00 00       	call   140001670 <__main>
   140001388:	48 8b 05 c1 83 00 00 	mov    rax,QWORD PTR [rip+0x83c1]        # 140009750 <.refptr.__imp___initenv>
   14000138f:	4c 8b 05 92 bc 00 00 	mov    r8,QWORD PTR [rip+0xbc92]        # 14000d028 <envp>
   140001396:	8b 0d 9c bc 00 00    	mov    ecx,DWORD PTR [rip+0xbc9c]        # 14000d038 <argc>
   14000139c:	48 8b 00             	mov    rax,QWORD PTR [rax]
   14000139f:	4c 89 00             	mov    QWORD PTR [rax],r8
   1400013a2:	48 8b 15 87 bc 00 00 	mov    rdx,QWORD PTR [rip+0xbc87]        # 14000d030 <argv>
   1400013a9:	e8 d6 01 00 00       	call   140001584 <main>
   1400013ae:	8b 0d 6c bc 00 00    	mov    ecx,DWORD PTR [rip+0xbc6c]        # 14000d020 <managedapp>
   1400013b4:	89 05 6a bc 00 00    	mov    DWORD PTR [rip+0xbc6a],eax        # 14000d024 <mainret>
   1400013ba:	85 c9                	test   ecx,ecx
   1400013bc:	0f 84 e4 00 00 00    	je     1400014a6 <__tmainCRTStartup+0x326>
   1400013c2:	8b 15 54 bc 00 00    	mov    edx,DWORD PTR [rip+0xbc54]        # 14000d01c <has_cctor>
   1400013c8:	85 d2                	test   edx,edx
   1400013ca:	0f 84 90 00 00 00    	je     140001460 <__tmainCRTStartup+0x2e0>
   1400013d0:	48 81 c4 90 00 00 00 	add    rsp,0x90
   1400013d7:	5b                   	pop    rbx
   1400013d8:	5e                   	pop    rsi
   1400013d9:	5f                   	pop    rdi
   1400013da:	5d                   	pop    rbp
   1400013db:	41 5c                	pop    r12
   1400013dd:	c3                   	ret
   1400013de:	66 90                	xchg   ax,ax
   1400013e0:	0f b7 44 24 60       	movzx  eax,WORD PTR [rsp+0x60]
   1400013e5:	e9 1e ff ff ff       	jmp    140001308 <__tmainCRTStartup+0x188>
   1400013ea:	66 0f 1f 44 00 00    	nop    WORD PTR [rax+rax*1+0x0]
   1400013f0:	48 8b 35 f9 83 00 00 	mov    rsi,QWORD PTR [rip+0x83f9]        # 1400097f0 <.refptr.__native_startup_state>
   1400013f7:	bd 01 00 00 00       	mov    ebp,0x1
   1400013fc:	8b 06                	mov    eax,DWORD PTR [rsi]
   1400013fe:	83 f8 01             	cmp    eax,0x1
   140001401:	0f 85 03 fe ff ff    	jne    14000120a <__tmainCRTStartup+0x8a>
   140001407:	b9 1f 00 00 00       	mov    ecx,0x1f
   14000140c:	e8 57 67 00 00       	call   140007b68 <_amsg_exit>
   140001411:	8b 06                	mov    eax,DWORD PTR [rsi]
   140001413:	83 f8 01             	cmp    eax,0x1
   140001416:	0f 85 0d fe ff ff    	jne    140001229 <__tmainCRTStartup+0xa9>
   14000141c:	48 8b 15 fd 83 00 00 	mov    rdx,QWORD PTR [rip+0x83fd]        # 140009820 <.refptr.__xc_z>
   140001423:	48 8b 0d e6 83 00 00 	mov    rcx,QWORD PTR [rip+0x83e6]        # 140009810 <.refptr.__xc_a>
   14000142a:	e8 51 67 00 00       	call   140007b80 <_initterm>
   14000142f:	c7 06 02 00 00 00    	mov    DWORD PTR [rsi],0x2
   140001435:	85 ed                	test   ebp,ebp
   140001437:	0f 85 f4 fd ff ff    	jne    140001231 <__tmainCRTStartup+0xb1>
   14000143d:	31 c0                	xor    eax,eax
   14000143f:	48 87 03             	xchg   QWORD PTR [rbx],rax
   140001442:	e9 ea fd ff ff       	jmp    140001231 <__tmainCRTStartup+0xb1>
   140001447:	66 0f 1f 84 00 00 00 	nop    WORD PTR [rax+rax*1+0x0]
   14000144e:	00 00 
   140001450:	48 89 d1             	mov    rcx,rdx
   140001453:	ff 15 93 cd 00 00    	call   QWORD PTR [rip+0xcd93]        # 14000e1ec <__imp_GetStartupInfoA>
   140001459:	e9 54 fd ff ff       	jmp    1400011b2 <__tmainCRTStartup+0x32>
   14000145e:	66 90                	xchg   ax,ax
   140001460:	e8 0b 67 00 00       	call   140007b70 <_cexit>
   140001465:	8b 05 b9 bb 00 00    	mov    eax,DWORD PTR [rip+0xbbb9]        # 14000d024 <mainret>
   14000146b:	48 81 c4 90 00 00 00 	add    rsp,0x90
   140001472:	5b                   	pop    rbx
   140001473:	5e                   	pop    rsi
   140001474:	5f                   	pop    rdi
   140001475:	5d                   	pop    rbp
   140001476:	41 5c                	pop    r12
   140001478:	c3                   	ret
   140001479:	0f 1f 80 00 00 00 00 	nop    DWORD PTR [rax+0x0]
   140001480:	48 8b 15 b9 83 00 00 	mov    rdx,QWORD PTR [rip+0x83b9]        # 140009840 <.refptr.__xi_z>
   140001487:	48 8b 0d a2 83 00 00 	mov    rcx,QWORD PTR [rip+0x83a2]        # 140009830 <.refptr.__xi_a>
   14000148e:	c7 06 01 00 00 00    	mov    DWORD PTR [rsi],0x1
   140001494:	e8 e7 66 00 00       	call   140007b80 <_initterm>
   140001499:	e9 80 fd ff ff       	jmp    14000121e <__tmainCRTStartup+0x9e>
   14000149e:	48 89 c3             	mov    rbx,rax
   1400014a1:	e9 cf fe ff ff       	jmp    140001375 <__tmainCRTStartup+0x1f5>
   1400014a6:	89 c1                	mov    ecx,eax
   1400014a8:	e8 03 67 00 00       	call   140007bb0 <exit>
   1400014ad:	90                   	nop
   1400014ae:	66 90                	xchg   ax,ax

00000001400014b0 <WinMainCRTStartup>:
   1400014b0:	48 83 ec 28          	sub    rsp,0x28

00000001400014b4 <.l_startw>:
   1400014b4:	48 8b 05 d5 82 00 00 	mov    rax,QWORD PTR [rip+0x82d5]        # 140009790 <.refptr.__mingw_app_type>
   1400014bb:	c7 00 01 00 00 00    	mov    DWORD PTR [rax],0x1
   1400014c1:	e8 ba fc ff ff       	call   140001180 <__tmainCRTStartup>
   1400014c6:	90                   	nop

00000001400014c7 <.l_endw>:
   1400014c7:	90                   	nop
   1400014c8:	48 83 c4 28          	add    rsp,0x28
   1400014cc:	c3                   	ret
   1400014cd:	0f 1f 00             	nop    DWORD PTR [rax]

00000001400014d0 <mainCRTStartup>:
   1400014d0:	48 83 ec 28          	sub    rsp,0x28

00000001400014d4 <.l_start>:
   1400014d4:	48 8b 05 b5 82 00 00 	mov    rax,QWORD PTR [rip+0x82b5]        # 140009790 <.refptr.__mingw_app_type>
   1400014db:	c7 00 00 00 00 00    	mov    DWORD PTR [rax],0x0
   1400014e1:	e8 9a fc ff ff       	call   140001180 <__tmainCRTStartup>
   1400014e6:	90                   	nop

00000001400014e7 <.l_end>:
   1400014e7:	90                   	nop
   1400014e8:	48 83 c4 28          	add    rsp,0x28
   1400014ec:	c3                   	ret
   1400014ed:	0f 1f 00             	nop    DWORD PTR [rax]

00000001400014f0 <atexit>:
   1400014f0:	48 83 ec 28          	sub    rsp,0x28
   1400014f4:	e8 97 66 00 00       	call   140007b90 <_onexit>
   1400014f9:	48 83 f8 01          	cmp    rax,0x1
   1400014fd:	19 c0                	sbb    eax,eax
   1400014ff:	48 83 c4 28          	add    rsp,0x28
   140001503:	c3                   	ret
   140001504:	90                   	nop
   140001505:	90                   	nop
   140001506:	90                   	nop
   140001507:	90                   	nop
   140001508:	90                   	nop
   140001509:	90                   	nop
   14000150a:	90                   	nop
   14000150b:	90                   	nop
   14000150c:	90                   	nop
   14000150d:	90                   	nop
   14000150e:	90                   	nop
   14000150f:	90                   	nop

0000000140001510 <__gcc_register_frame>:
   140001510:	48 8d 0d 09 00 00 00 	lea    rcx,[rip+0x9]        # 140001520 <__gcc_deregister_frame>
   140001517:	e9 d4 ff ff ff       	jmp    1400014f0 <atexit>
   14000151c:	0f 1f 40 00          	nop    DWORD PTR [rax+0x0]

0000000140001520 <__gcc_deregister_frame>:
   140001520:	c3                   	ret
   140001521:	90                   	nop
   140001522:	90                   	nop
   140001523:	90                   	nop
   140001524:	90                   	nop
   140001525:	90                   	nop
   140001526:	90                   	nop
   140001527:	90                   	nop
   140001528:	90                   	nop
   140001529:	90                   	nop
   14000152a:	90                   	nop
   14000152b:	90                   	nop
   14000152c:	90                   	nop
   14000152d:	90                   	nop
   14000152e:	90                   	nop
   14000152f:	90                   	nop

0000000140001530 <printf>:
   140001530:	55                   	push   rbp
   140001531:	53                   	push   rbx
   140001532:	48 83 ec 38          	sub    rsp,0x38
   140001536:	48 8d 6c 24 30       	lea    rbp,[rsp+0x30]
   14000153b:	48 89 4d 20          	mov    QWORD PTR [rbp+0x20],rcx
   14000153f:	48 89 55 28          	mov    QWORD PTR [rbp+0x28],rdx
   140001543:	4c 89 45 30          	mov    QWORD PTR [rbp+0x30],r8
   140001547:	4c 89 4d 38          	mov    QWORD PTR [rbp+0x38],r9
   14000154b:	48 8d 45 28          	lea    rax,[rbp+0x28]
   14000154f:	48 89 45 f0          	mov    QWORD PTR [rbp-0x10],rax
   140001553:	48 8b 5d f0          	mov    rbx,QWORD PTR [rbp-0x10]
   140001557:	b9 01 00 00 00       	mov    ecx,0x1
   14000155c:	48 8b 05 7d 6b 00 00 	mov    rax,QWORD PTR [rip+0x6b7d]        # 1400080e0 <__imp___acrt_iob_func>
   140001563:	ff d0                	call   rax
   140001565:	48 89 c1             	mov    rcx,rax
   140001568:	48 8b 45 20          	mov    rax,QWORD PTR [rbp+0x20]
   14000156c:	49 89 d8             	mov    r8,rbx
   14000156f:	48 89 c2             	mov    rdx,rax
   140001572:	e8 e9 10 00 00       	call   140002660 <__mingw_vfprintf>
   140001577:	89 45 fc             	mov    DWORD PTR [rbp-0x4],eax
   14000157a:	8b 45 fc             	mov    eax,DWORD PTR [rbp-0x4]
   14000157d:	48 83 c4 38          	add    rsp,0x38
   140001581:	5b                   	pop    rbx
   140001582:	5d                   	pop    rbp
   140001583:	c3                   	ret

0000000140001584 <main>:
   140001584:	55                   	push   rbp
   140001585:	48 89 e5             	mov    rbp,rsp
   140001588:	48 83 ec 20          	sub    rsp,0x20
   14000158c:	89 4d 10             	mov    DWORD PTR [rbp+0x10],ecx
   14000158f:	48 89 55 18          	mov    QWORD PTR [rbp+0x18],rdx
   140001593:	e8 d8 00 00 00       	call   140001670 <__main>
   140001598:	48 8d 05 61 7a 00 00 	lea    rax,[rip+0x7a61]        # 140009000 <.rdata>
   14000159f:	48 89 c1             	mov    rcx,rax
   1400015a2:	e8 89 ff ff ff       	call   140001530 <printf>
   1400015a7:	b8 00 00 00 00       	mov    eax,0x0
   1400015ac:	48 83 c4 20          	add    rsp,0x20
   1400015b0:	5d                   	pop    rbp
   1400015b1:	c3                   	ret
   1400015b2:	90                   	nop
   1400015b3:	90                   	nop
   1400015b4:	90                   	nop
   1400015b5:	90                   	nop
   1400015b6:	90                   	nop
   1400015b7:	90                   	nop
   1400015b8:	90                   	nop
   1400015b9:	90                   	nop
   1400015ba:	90                   	nop
   1400015bb:	90                   	nop
   1400015bc:	90                   	nop
   1400015bd:	90                   	nop
   1400015be:	90                   	nop
   1400015bf:	90                   	nop

00000001400015c0 <__do_global_dtors>:
   1400015c0:	48 83 ec 28          	sub    rsp,0x28
   1400015c4:	48 8b 05 45 6a 00 00 	mov    rax,QWORD PTR [rip+0x6a45]        # 140008010 <p.0>
   1400015cb:	48 8b 00             	mov    rax,QWORD PTR [rax]
   1400015ce:	48 85 c0             	test   rax,rax
   1400015d1:	74 22                	je     1400015f5 <__do_global_dtors+0x35>
   1400015d3:	0f 1f 44 00 00       	nop    DWORD PTR [rax+rax*1+0x0]
   1400015d8:	ff d0                	call   rax
   1400015da:	48 8b 05 2f 6a 00 00 	mov    rax,QWORD PTR [rip+0x6a2f]        # 140008010 <p.0>
   1400015e1:	48 8d 50 08          	lea    rdx,[rax+0x8]
   1400015e5:	48 8b 40 08          	mov    rax,QWORD PTR [rax+0x8]
   1400015e9:	48 89 15 20 6a 00 00 	mov    QWORD PTR [rip+0x6a20],rdx        # 140008010 <p.0>
   1400015f0:	48 85 c0             	test   rax,rax
   1400015f3:	75 e3                	jne    1400015d8 <__do_global_dtors+0x18>
   1400015f5:	48 83 c4 28          	add    rsp,0x28
   1400015f9:	c3                   	ret
   1400015fa:	66 0f 1f 44 00 00    	nop    WORD PTR [rax+rax*1+0x0]

0000000140001600 <__do_global_ctors>:
   140001600:	56                   	push   rsi
   140001601:	53                   	push   rbx
   140001602:	48 83 ec 28          	sub    rsp,0x28
   140001606:	48 8b 15 f3 80 00 00 	mov    rdx,QWORD PTR [rip+0x80f3]        # 140009700 <.refptr.__CTOR_LIST__>
   14000160d:	48 8b 02             	mov    rax,QWORD PTR [rdx]
   140001610:	89 c1                	mov    ecx,eax
   140001612:	83 f8 ff             	cmp    eax,0xffffffff
   140001615:	74 39                	je     140001650 <__do_global_ctors+0x50>
   140001617:	85 c9                	test   ecx,ecx
   140001619:	74 20                	je     14000163b <__do_global_ctors+0x3b>
   14000161b:	89 c8                	mov    eax,ecx
   14000161d:	83 e9 01             	sub    ecx,0x1
   140001620:	48 8d 1c c2          	lea    rbx,[rdx+rax*8]
   140001624:	48 29 c8             	sub    rax,rcx
   140001627:	48 8d 74 c2 f8       	lea    rsi,[rdx+rax*8-0x8]
   14000162c:	0f 1f 40 00          	nop    DWORD PTR [rax+0x0]
   140001630:	ff 13                	call   QWORD PTR [rbx]
   140001632:	48 83 eb 08          	sub    rbx,0x8
   140001636:	48 39 f3             	cmp    rbx,rsi
   140001639:	75 f5                	jne    140001630 <__do_global_ctors+0x30>
   14000163b:	48 8d 0d 7e ff ff ff 	lea    rcx,[rip+0xffffffffffffff7e]        # 1400015c0 <__do_global_dtors>
   140001642:	48 83 c4 28          	add    rsp,0x28
   140001646:	5b                   	pop    rbx
   140001647:	5e                   	pop    rsi
   140001648:	e9 a3 fe ff ff       	jmp    1400014f0 <atexit>
   14000164d:	0f 1f 00             	nop    DWORD PTR [rax]
   140001650:	31 c0                	xor    eax,eax
   140001652:	66 0f 1f 44 00 00    	nop    WORD PTR [rax+rax*1+0x0]
   140001658:	44 8d 40 01          	lea    r8d,[rax+0x1]
   14000165c:	89 c1                	mov    ecx,eax
   14000165e:	4a 83 3c c2 00       	cmp    QWORD PTR [rdx+r8*8],0x0
   140001663:	4c 89 c0             	mov    rax,r8
   140001666:	75 f0                	jne    140001658 <__do_global_ctors+0x58>
   140001668:	eb ad                	jmp    140001617 <__do_global_ctors+0x17>
   14000166a:	66 0f 1f 44 00 00    	nop    WORD PTR [rax+rax*1+0x0]

0000000140001670 <__main>:
   140001670:	8b 05 ca b9 00 00    	mov    eax,DWORD PTR [rip+0xb9ca]        # 14000d040 <initialized>
   140001676:	85 c0                	test   eax,eax
   140001678:	74 06                	je     140001680 <__main+0x10>
   14000167a:	c3                   	ret
   14000167b:	0f 1f 44 00 00       	nop    DWORD PTR [rax+rax*1+0x0]
   140001680:	c7 05 b6 b9 00 00 01 	mov    DWORD PTR [rip+0xb9b6],0x1        # 14000d040 <initialized>
   140001687:	00 00 00 
   14000168a:	e9 71 ff ff ff       	jmp    140001600 <__do_global_ctors>
   14000168f:	90                   	nop

0000000140001690 <_setargv>:
   140001690:	31 c0                	xor    eax,eax
   140001692:	c3                   	ret
   140001693:	90                   	nop
   140001694:	90                   	nop
   140001695:	90                   	nop
   140001696:	90                   	nop
   140001697:	90                   	nop
   140001698:	90                   	nop
   140001699:	90                   	nop
   14000169a:	90                   	nop
   14000169b:	90                   	nop
   14000169c:	90                   	nop
   14000169d:	90                   	nop
   14000169e:	90                   	nop
   14000169f:	90                   	nop

00000001400016a0 <__dyn_tls_dtor>:
   1400016a0:	48 83 ec 28          	sub    rsp,0x28
   1400016a4:	83 fa 03             	cmp    edx,0x3
   1400016a7:	74 17                	je     1400016c0 <__dyn_tls_dtor+0x20>
   1400016a9:	85 d2                	test   edx,edx
   1400016ab:	74 13                	je     1400016c0 <__dyn_tls_dtor+0x20>
   1400016ad:	b8 01 00 00 00       	mov    eax,0x1
   1400016b2:	48 83 c4 28          	add    rsp,0x28
   1400016b6:	c3                   	ret
   1400016b7:	66 0f 1f 84 00 00 00 	nop    WORD PTR [rax+rax*1+0x0]
   1400016be:	00 00 
   1400016c0:	e8 5b 0a 00 00       	call   140002120 <__mingw_TLScallback>
   1400016c5:	b8 01 00 00 00       	mov    eax,0x1
   1400016ca:	48 83 c4 28          	add    rsp,0x28
   1400016ce:	c3                   	ret
   1400016cf:	90                   	nop

00000001400016d0 <__dyn_tls_init>:
   1400016d0:	56                   	push   rsi
   1400016d1:	53                   	push   rbx
   1400016d2:	48 83 ec 28          	sub    rsp,0x28
   1400016d6:	48 8b 05 03 80 00 00 	mov    rax,QWORD PTR [rip+0x8003]        # 1400096e0 <.refptr._CRT_MT>
   1400016dd:	83 38 02             	cmp    DWORD PTR [rax],0x2
   1400016e0:	74 06                	je     1400016e8 <__dyn_tls_init+0x18>
   1400016e2:	c7 00 02 00 00 00    	mov    DWORD PTR [rax],0x2
   1400016e8:	83 fa 02             	cmp    edx,0x2
   1400016eb:	74 13                	je     140001700 <__dyn_tls_init+0x30>
   1400016ed:	83 fa 01             	cmp    edx,0x1
   1400016f0:	74 4e                	je     140001740 <__dyn_tls_init+0x70>
   1400016f2:	b8 01 00 00 00       	mov    eax,0x1
   1400016f7:	48 83 c4 28          	add    rsp,0x28
   1400016fb:	5b                   	pop    rbx
   1400016fc:	5e                   	pop    rsi
   1400016fd:	c3                   	ret
   1400016fe:	66 90                	xchg   ax,ax
   140001700:	48 8d 1d 51 d9 00 00 	lea    rbx,[rip+0xd951]        # 14000f058 <__xd_z>
   140001707:	48 8d 35 4a d9 00 00 	lea    rsi,[rip+0xd94a]        # 14000f058 <__xd_z>
   14000170e:	48 39 de             	cmp    rsi,rbx
   140001711:	74 df                	je     1400016f2 <__dyn_tls_init+0x22>
   140001713:	0f 1f 44 00 00       	nop    DWORD PTR [rax+rax*1+0x0]
   140001718:	48 8b 03             	mov    rax,QWORD PTR [rbx]
   14000171b:	48 85 c0             	test   rax,rax
   14000171e:	74 02                	je     140001722 <__dyn_tls_init+0x52>
   140001720:	ff d0                	call   rax
   140001722:	48 83 c3 08          	add    rbx,0x8
   140001726:	48 39 de             	cmp    rsi,rbx
   140001729:	75 ed                	jne    140001718 <__dyn_tls_init+0x48>
   14000172b:	b8 01 00 00 00       	mov    eax,0x1
   140001730:	48 83 c4 28          	add    rsp,0x28
   140001734:	5b                   	pop    rbx
   140001735:	5e                   	pop    rsi
   140001736:	c3                   	ret
   140001737:	66 0f 1f 84 00 00 00 	nop    WORD PTR [rax+rax*1+0x0]
   14000173e:	00 00 
   140001740:	e8 db 09 00 00       	call   140002120 <__mingw_TLScallback>
   140001745:	b8 01 00 00 00       	mov    eax,0x1
   14000174a:	48 83 c4 28          	add    rsp,0x28
   14000174e:	5b                   	pop    rbx
   14000174f:	5e                   	pop    rsi
   140001750:	c3                   	ret
   140001751:	66 66 2e 0f 1f 84 00 	data16 cs nop WORD PTR [rax+rax*1+0x0]
   140001758:	00 00 00 00 
   14000175c:	0f 1f 40 00          	nop    DWORD PTR [rax+0x0]

0000000140001760 <__tlregdtor>:
   140001760:	31 c0                	xor    eax,eax
   140001762:	c3                   	ret
   140001763:	90                   	nop
   140001764:	90                   	nop
   140001765:	90                   	nop
   140001766:	90                   	nop
   140001767:	90                   	nop
   140001768:	90                   	nop
   140001769:	90                   	nop
   14000176a:	90                   	nop
   14000176b:	90                   	nop
   14000176c:	90                   	nop
   14000176d:	90                   	nop
   14000176e:	90                   	nop
   14000176f:	90                   	nop

0000000140001770 <_matherr>:
   140001770:	56                   	push   rsi
   140001771:	53                   	push   rbx
   140001772:	48 83 ec 78          	sub    rsp,0x78
   140001776:	0f 11 74 24 40       	movups XMMWORD PTR [rsp+0x40],xmm6
   14000177b:	0f 11 7c 24 50       	movups XMMWORD PTR [rsp+0x50],xmm7
   140001780:	44 0f 11 44 24 60    	movups XMMWORD PTR [rsp+0x60],xmm8
   140001786:	83 39 06             	cmp    DWORD PTR [rcx],0x6
   140001789:	0f 87 cd 00 00 00    	ja     14000185c <_matherr+0xec>
   14000178f:	8b 01                	mov    eax,DWORD PTR [rcx]
   140001791:	48 8d 15 0c 7a 00 00 	lea    rdx,[rip+0x7a0c]        # 1400091a4 <.rdata+0x124>
   140001798:	48 63 04 82          	movsxd rax,DWORD PTR [rdx+rax*4]
   14000179c:	48 01 d0             	add    rax,rdx
   14000179f:	ff e0                	jmp    rax
   1400017a1:	0f 1f 80 00 00 00 00 	nop    DWORD PTR [rax+0x0]
   1400017a8:	48 8d 1d f0 78 00 00 	lea    rbx,[rip+0x78f0]        # 14000909f <.rdata+0x1f>
   1400017af:	f2 44 0f 10 41 20    	movsd  xmm8,QWORD PTR [rcx+0x20]
   1400017b5:	f2 0f 10 79 18       	movsd  xmm7,QWORD PTR [rcx+0x18]
   1400017ba:	f2 0f 10 71 10       	movsd  xmm6,QWORD PTR [rcx+0x10]
   1400017bf:	48 8b 71 08          	mov    rsi,QWORD PTR [rcx+0x8]
   1400017c3:	b9 02 00 00 00       	mov    ecx,0x2
   1400017c8:	e8 33 5e 00 00       	call   140007600 <__acrt_iob_func>
   1400017cd:	f2 44 0f 11 44 24 30 	movsd  QWORD PTR [rsp+0x30],xmm8
   1400017d4:	49 89 d8             	mov    r8,rbx
   1400017d7:	48 8d 15 9a 79 00 00 	lea    rdx,[rip+0x799a]        # 140009178 <.rdata+0xf8>
   1400017de:	f2 0f 11 7c 24 28    	movsd  QWORD PTR [rsp+0x28],xmm7
   1400017e4:	48 89 c1             	mov    rcx,rax
   1400017e7:	49 89 f1             	mov    r9,rsi
   1400017ea:	f2 0f 11 74 24 20    	movsd  QWORD PTR [rsp+0x20],xmm6
   1400017f0:	e8 c3 63 00 00       	call   140007bb8 <fprintf>
   1400017f5:	90                   	nop
   1400017f6:	0f 10 74 24 40       	movups xmm6,XMMWORD PTR [rsp+0x40]
   1400017fb:	0f 10 7c 24 50       	movups xmm7,XMMWORD PTR [rsp+0x50]
   140001800:	31 c0                	xor    eax,eax
   140001802:	44 0f 10 44 24 60    	movups xmm8,XMMWORD PTR [rsp+0x60]
   140001808:	48 83 c4 78          	add    rsp,0x78
   14000180c:	5b                   	pop    rbx
   14000180d:	5e                   	pop    rsi
   14000180e:	c3                   	ret
   14000180f:	90                   	nop
   140001810:	48 8d 1d 69 78 00 00 	lea    rbx,[rip+0x7869]        # 140009080 <.rdata>
   140001817:	eb 96                	jmp    1400017af <_matherr+0x3f>
   140001819:	0f 1f 80 00 00 00 00 	nop    DWORD PTR [rax+0x0]
   140001820:	48 8d 1d b9 78 00 00 	lea    rbx,[rip+0x78b9]        # 1400090e0 <.rdata+0x60>
   140001827:	eb 86                	jmp    1400017af <_matherr+0x3f>
   140001829:	0f 1f 80 00 00 00 00 	nop    DWORD PTR [rax+0x0]
   140001830:	48 8d 1d 89 78 00 00 	lea    rbx,[rip+0x7889]        # 1400090c0 <.rdata+0x40>
   140001837:	e9 73 ff ff ff       	jmp    1400017af <_matherr+0x3f>
   14000183c:	0f 1f 40 00          	nop    DWORD PTR [rax+0x0]
   140001840:	48 8d 1d e9 78 00 00 	lea    rbx,[rip+0x78e9]        # 140009130 <.rdata+0xb0>
   140001847:	e9 63 ff ff ff       	jmp    1400017af <_matherr+0x3f>
   14000184c:	0f 1f 40 00          	nop    DWORD PTR [rax+0x0]
   140001850:	48 8d 1d b1 78 00 00 	lea    rbx,[rip+0x78b1]        # 140009108 <.rdata+0x88>
   140001857:	e9 53 ff ff ff       	jmp    1400017af <_matherr+0x3f>
   14000185c:	48 8d 1d 03 79 00 00 	lea    rbx,[rip+0x7903]        # 140009166 <.rdata+0xe6>
   140001863:	e9 47 ff ff ff       	jmp    1400017af <_matherr+0x3f>
   140001868:	90                   	nop
   140001869:	90                   	nop
   14000186a:	90                   	nop
   14000186b:	90                   	nop
   14000186c:	90                   	nop
   14000186d:	90                   	nop
   14000186e:	90                   	nop
   14000186f:	90                   	nop

0000000140001870 <_fpreset>:
   140001870:	db e3                	fninit
   140001872:	c3                   	ret
   140001873:	90                   	nop
   140001874:	90                   	nop
   140001875:	90                   	nop
   140001876:	90                   	nop
   140001877:	90                   	nop
   140001878:	90                   	nop
   140001879:	90                   	nop
   14000187a:	90                   	nop
   14000187b:	90                   	nop
   14000187c:	90                   	nop
   14000187d:	90                   	nop
   14000187e:	90                   	nop
   14000187f:	90                   	nop

0000000140001880 <__report_error>:
   140001880:	56                   	push   rsi
   140001881:	53                   	push   rbx
   140001882:	48 83 ec 38          	sub    rsp,0x38
   140001886:	48 89 cb             	mov    rbx,rcx
   140001889:	48 8d 44 24 58       	lea    rax,[rsp+0x58]
   14000188e:	b9 02 00 00 00       	mov    ecx,0x2
   140001893:	48 89 54 24 58       	mov    QWORD PTR [rsp+0x58],rdx
   140001898:	4c 89 44 24 60       	mov    QWORD PTR [rsp+0x60],r8
   14000189d:	4c 89 4c 24 68       	mov    QWORD PTR [rsp+0x68],r9
   1400018a2:	48 89 44 24 28       	mov    QWORD PTR [rsp+0x28],rax
   1400018a7:	e8 54 5d 00 00       	call   140007600 <__acrt_iob_func>
   1400018ac:	41 b8 1b 00 00 00    	mov    r8d,0x1b
   1400018b2:	ba 01 00 00 00       	mov    edx,0x1
   1400018b7:	48 8d 0d 02 79 00 00 	lea    rcx,[rip+0x7902]        # 1400091c0 <.rdata>
   1400018be:	49 89 c1             	mov    r9,rax
   1400018c1:	e8 0a 63 00 00       	call   140007bd0 <fwrite>
   1400018c6:	48 8b 74 24 28       	mov    rsi,QWORD PTR [rsp+0x28]
   1400018cb:	b9 02 00 00 00       	mov    ecx,0x2
   1400018d0:	e8 2b 5d 00 00       	call   140007600 <__acrt_iob_func>
   1400018d5:	48 89 da             	mov    rdx,rbx
   1400018d8:	48 89 c1             	mov    rcx,rax
   1400018db:	49 89 f0             	mov    r8,rsi
   1400018de:	e8 35 63 00 00       	call   140007c18 <vfprintf>
   1400018e3:	e8 b8 62 00 00       	call   140007ba0 <abort>
   1400018e8:	90                   	nop
   1400018e9:	0f 1f 80 00 00 00 00 	nop    DWORD PTR [rax+0x0]

00000001400018f0 <mark_section_writable>:
   1400018f0:	57                   	push   rdi
   1400018f1:	56                   	push   rsi
   1400018f2:	53                   	push   rbx
   1400018f3:	48 83 ec 50          	sub    rsp,0x50
   1400018f7:	48 63 35 a6 b7 00 00 	movsxd rsi,DWORD PTR [rip+0xb7a6]        # 14000d0a4 <maxSections>
   1400018fe:	48 89 cb             	mov    rbx,rcx
   140001901:	85 f6                	test   esi,esi
   140001903:	0f 8e 17 01 00 00    	jle    140001a20 <mark_section_writable+0x130>
   140001909:	48 8b 05 98 b7 00 00 	mov    rax,QWORD PTR [rip+0xb798]        # 14000d0a8 <the_secs>
   140001910:	45 31 c9             	xor    r9d,r9d
   140001913:	48 83 c0 18          	add    rax,0x18
   140001917:	66 0f 1f 84 00 00 00 	nop    WORD PTR [rax+rax*1+0x0]
   14000191e:	00 00 
   140001920:	4c 8b 00             	mov    r8,QWORD PTR [rax]
   140001923:	4c 39 c3             	cmp    rbx,r8
   140001926:	72 13                	jb     14000193b <mark_section_writable+0x4b>
   140001928:	48 8b 50 08          	mov    rdx,QWORD PTR [rax+0x8]
   14000192c:	8b 52 08             	mov    edx,DWORD PTR [rdx+0x8]
   14000192f:	49 01 d0             	add    r8,rdx
   140001932:	4c 39 c3             	cmp    rbx,r8
   140001935:	0f 82 8a 00 00 00    	jb     1400019c5 <mark_section_writable+0xd5>
   14000193b:	41 83 c1 01          	add    r9d,0x1
   14000193f:	48 83 c0 28          	add    rax,0x28
   140001943:	41 39 f1             	cmp    r9d,esi
   140001946:	75 d8                	jne    140001920 <mark_section_writable+0x30>
   140001948:	48 89 d9             	mov    rcx,rbx
   14000194b:	e8 f0 09 00 00       	call   140002340 <__mingw_GetSectionForAddress>
   140001950:	48 89 c7             	mov    rdi,rax
   140001953:	48 85 c0             	test   rax,rax
   140001956:	0f 84 e6 00 00 00    	je     140001a42 <mark_section_writable+0x152>
   14000195c:	48 8b 05 45 b7 00 00 	mov    rax,QWORD PTR [rip+0xb745]        # 14000d0a8 <the_secs>
   140001963:	48 8d 1c b6          	lea    rbx,[rsi+rsi*4]
   140001967:	48 c1 e3 03          	shl    rbx,0x3
   14000196b:	48 01 d8             	add    rax,rbx
   14000196e:	48 89 78 20          	mov    QWORD PTR [rax+0x20],rdi
   140001972:	c7 00 00 00 00 00    	mov    DWORD PTR [rax],0x0
   140001978:	e8 03 0b 00 00       	call   140002480 <_GetPEImageBase>
   14000197d:	8b 57 0c             	mov    edx,DWORD PTR [rdi+0xc]
   140001980:	41 b8 30 00 00 00    	mov    r8d,0x30
   140001986:	48 8d 0c 10          	lea    rcx,[rax+rdx*1]
   14000198a:	48 8b 05 17 b7 00 00 	mov    rax,QWORD PTR [rip+0xb717]        # 14000d0a8 <the_secs>
   140001991:	48 8d 54 24 20       	lea    rdx,[rsp+0x20]
   140001996:	48 89 4c 18 18       	mov    QWORD PTR [rax+rbx*1+0x18],rcx
   14000199b:	ff 15 93 c8 00 00    	call   QWORD PTR [rip+0xc893]        # 14000e234 <__imp_VirtualQuery>
   1400019a1:	48 85 c0             	test   rax,rax
   1400019a4:	0f 84 7d 00 00 00    	je     140001a27 <mark_section_writable+0x137>
   1400019aa:	8b 44 24 44          	mov    eax,DWORD PTR [rsp+0x44]
   1400019ae:	8d 50 c0             	lea    edx,[rax-0x40]
   1400019b1:	83 e2 bf             	and    edx,0xffffffbf
   1400019b4:	74 08                	je     1400019be <mark_section_writable+0xce>
   1400019b6:	8d 50 fc             	lea    edx,[rax-0x4]
   1400019b9:	83 e2 fb             	and    edx,0xfffffffb
   1400019bc:	75 12                	jne    1400019d0 <mark_section_writable+0xe0>
   1400019be:	83 05 df b6 00 00 01 	add    DWORD PTR [rip+0xb6df],0x1        # 14000d0a4 <maxSections>
   1400019c5:	48 83 c4 50          	add    rsp,0x50
   1400019c9:	5b                   	pop    rbx
   1400019ca:	5e                   	pop    rsi
   1400019cb:	5f                   	pop    rdi
   1400019cc:	c3                   	ret
   1400019cd:	0f 1f 00             	nop    DWORD PTR [rax]
   1400019d0:	83 f8 02             	cmp    eax,0x2
   1400019d3:	48 8b 4c 24 20       	mov    rcx,QWORD PTR [rsp+0x20]
   1400019d8:	48 8b 54 24 38       	mov    rdx,QWORD PTR [rsp+0x38]
   1400019dd:	41 b8 40 00 00 00    	mov    r8d,0x40
   1400019e3:	b8 04 00 00 00       	mov    eax,0x4
   1400019e8:	44 0f 44 c0          	cmove  r8d,eax
   1400019ec:	48 03 1d b5 b6 00 00 	add    rbx,QWORD PTR [rip+0xb6b5]        # 14000d0a8 <the_secs>
   1400019f3:	48 89 4b 08          	mov    QWORD PTR [rbx+0x8],rcx
   1400019f7:	49 89 d9             	mov    r9,rbx
   1400019fa:	48 89 53 10          	mov    QWORD PTR [rbx+0x10],rdx
   1400019fe:	ff 15 28 c8 00 00    	call   QWORD PTR [rip+0xc828]        # 14000e22c <__imp_VirtualProtect>
   140001a04:	85 c0                	test   eax,eax
   140001a06:	75 b6                	jne    1400019be <mark_section_writable+0xce>
   140001a08:	ff 15 d6 c7 00 00    	call   QWORD PTR [rip+0xc7d6]        # 14000e1e4 <__imp_GetLastError>
   140001a0e:	48 8d 0d 23 78 00 00 	lea    rcx,[rip+0x7823]        # 140009238 <.rdata+0x78>
   140001a15:	89 c2                	mov    edx,eax
   140001a17:	e8 64 fe ff ff       	call   140001880 <__report_error>
   140001a1c:	0f 1f 40 00          	nop    DWORD PTR [rax+0x0]
   140001a20:	31 f6                	xor    esi,esi
   140001a22:	e9 21 ff ff ff       	jmp    140001948 <mark_section_writable+0x58>
   140001a27:	48 8b 05 7a b6 00 00 	mov    rax,QWORD PTR [rip+0xb67a]        # 14000d0a8 <the_secs>
   140001a2e:	8b 57 08             	mov    edx,DWORD PTR [rdi+0x8]
   140001a31:	48 8d 0d c8 77 00 00 	lea    rcx,[rip+0x77c8]        # 140009200 <.rdata+0x40>
   140001a38:	4c 8b 44 18 18       	mov    r8,QWORD PTR [rax+rbx*1+0x18]
   140001a3d:	e8 3e fe ff ff       	call   140001880 <__report_error>
   140001a42:	48 89 da             	mov    rdx,rbx
   140001a45:	48 8d 0d 94 77 00 00 	lea    rcx,[rip+0x7794]        # 1400091e0 <.rdata+0x20>
   140001a4c:	e8 2f fe ff ff       	call   140001880 <__report_error>
   140001a51:	90                   	nop
   140001a52:	66 66 2e 0f 1f 84 00 	data16 cs nop WORD PTR [rax+rax*1+0x0]
   140001a59:	00 00 00 00 
   140001a5d:	0f 1f 00             	nop    DWORD PTR [rax]

0000000140001a60 <_pei386_runtime_relocator>:
   140001a60:	55                   	push   rbp
   140001a61:	41 57                	push   r15
   140001a63:	41 56                	push   r14
   140001a65:	41 55                	push   r13
   140001a67:	41 54                	push   r12
   140001a69:	57                   	push   rdi
   140001a6a:	56                   	push   rsi
   140001a6b:	53                   	push   rbx
   140001a6c:	48 83 ec 48          	sub    rsp,0x48
   140001a70:	48 8d 6c 24 40       	lea    rbp,[rsp+0x40]
   140001a75:	44 8b 25 24 b6 00 00 	mov    r12d,DWORD PTR [rip+0xb624]        # 14000d0a0 <was_init.0>
   140001a7c:	45 85 e4             	test   r12d,r12d
   140001a7f:	74 17                	je     140001a98 <_pei386_runtime_relocator+0x38>
   140001a81:	48 8d 65 08          	lea    rsp,[rbp+0x8]
   140001a85:	5b                   	pop    rbx
   140001a86:	5e                   	pop    rsi
   140001a87:	5f                   	pop    rdi
   140001a88:	41 5c                	pop    r12
   140001a8a:	41 5d                	pop    r13
   140001a8c:	41 5e                	pop    r14
   140001a8e:	41 5f                	pop    r15
   140001a90:	5d                   	pop    rbp
   140001a91:	c3                   	ret
   140001a92:	66 0f 1f 44 00 00    	nop    WORD PTR [rax+rax*1+0x0]
   140001a98:	c7 05 fe b5 00 00 01 	mov    DWORD PTR [rip+0xb5fe],0x1        # 14000d0a0 <was_init.0>
   140001a9f:	00 00 00 
   140001aa2:	e8 19 09 00 00       	call   1400023c0 <__mingw_GetSectionCount>
   140001aa7:	48 98                	cdqe
   140001aa9:	48 8d 04 80          	lea    rax,[rax+rax*4]
   140001aad:	48 8d 04 c5 0f 00 00 	lea    rax,[rax*8+0xf]
   140001ab4:	00 
   140001ab5:	48 83 e0 f0          	and    rax,0xfffffffffffffff0
   140001ab9:	e8 62 0b 00 00       	call   140002620 <___chkstk_ms>
   140001abe:	4c 8b 2d 4b 7c 00 00 	mov    r13,QWORD PTR [rip+0x7c4b]        # 140009710 <.refptr.__RUNTIME_PSEUDO_RELOC_LIST_END__>
   140001ac5:	48 8b 1d 54 7c 00 00 	mov    rbx,QWORD PTR [rip+0x7c54]        # 140009720 <.refptr.__RUNTIME_PSEUDO_RELOC_LIST__>
   140001acc:	c7 05 ce b5 00 00 00 	mov    DWORD PTR [rip+0xb5ce],0x0        # 14000d0a4 <maxSections>
   140001ad3:	00 00 00 
   140001ad6:	48 29 c4             	sub    rsp,rax
   140001ad9:	48 8d 44 24 30       	lea    rax,[rsp+0x30]
   140001ade:	48 89 05 c3 b5 00 00 	mov    QWORD PTR [rip+0xb5c3],rax        # 14000d0a8 <the_secs>
   140001ae5:	4c 89 e8             	mov    rax,r13
   140001ae8:	48 29 d8             	sub    rax,rbx
   140001aeb:	48 83 f8 07          	cmp    rax,0x7
   140001aef:	7e 90                	jle    140001a81 <_pei386_runtime_relocator+0x21>
   140001af1:	8b 13                	mov    edx,DWORD PTR [rbx]
   140001af3:	48 83 f8 0b          	cmp    rax,0xb
   140001af7:	0f 8f 7b 01 00 00    	jg     140001c78 <_pei386_runtime_relocator+0x218>
   140001afd:	8b 03                	mov    eax,DWORD PTR [rbx]
   140001aff:	85 c0                	test   eax,eax
   140001b01:	0f 85 69 02 00 00    	jne    140001d70 <_pei386_runtime_relocator+0x310>
   140001b07:	8b 43 04             	mov    eax,DWORD PTR [rbx+0x4]
   140001b0a:	85 c0                	test   eax,eax
   140001b0c:	0f 85 5e 02 00 00    	jne    140001d70 <_pei386_runtime_relocator+0x310>
   140001b12:	8b 53 08             	mov    edx,DWORD PTR [rbx+0x8]
   140001b15:	83 fa 01             	cmp    edx,0x1
   140001b18:	0f 85 90 02 00 00    	jne    140001dae <_pei386_runtime_relocator+0x34e>
   140001b1e:	48 83 c3 0c          	add    rbx,0xc
   140001b22:	4c 39 eb             	cmp    rbx,r13
   140001b25:	0f 83 56 ff ff ff    	jae    140001a81 <_pei386_runtime_relocator+0x21>
   140001b2b:	4c 8b 35 0e 7c 00 00 	mov    r14,QWORD PTR [rip+0x7c0e]        # 140009740 <.refptr.__image_base__>
   140001b32:	49 bf ff ff ff 7f ff 	movabs r15,0xffffffff7fffffff
   140001b39:	ff ff ff 
   140001b3c:	eb 54                	jmp    140001b92 <_pei386_runtime_relocator+0x132>
   140001b3e:	66 90                	xchg   ax,ax
   140001b40:	0f b6 37             	movzx  esi,BYTE PTR [rdi]
   140001b43:	81 e1 c0 00 00 00    	and    ecx,0xc0
   140001b49:	40 84 f6             	test   sil,sil
   140001b4c:	0f 89 06 02 00 00    	jns    140001d58 <_pei386_runtime_relocator+0x2f8>
   140001b52:	48 81 ce 00 ff ff ff 	or     rsi,0xffffffffffffff00
   140001b59:	48 29 c6             	sub    rsi,rax
   140001b5c:	4c 01 ce             	add    rsi,r9
   140001b5f:	85 c9                	test   ecx,ecx
   140001b61:	75 17                	jne    140001b7a <_pei386_runtime_relocator+0x11a>
   140001b63:	48 81 fe ff 00 00 00 	cmp    rsi,0xff
   140001b6a:	0f 8f 4f 01 00 00    	jg     140001cbf <_pei386_runtime_relocator+0x25f>
   140001b70:	48 83 fe 80          	cmp    rsi,0xffffffffffffff80
   140001b74:	0f 8c 45 01 00 00    	jl     140001cbf <_pei386_runtime_relocator+0x25f>
   140001b7a:	48 89 f9             	mov    rcx,rdi
   140001b7d:	e8 6e fd ff ff       	call   1400018f0 <mark_section_writable>
   140001b82:	40 88 37             	mov    BYTE PTR [rdi],sil
   140001b85:	48 83 c3 0c          	add    rbx,0xc
   140001b89:	4c 39 eb             	cmp    rbx,r13
   140001b8c:	0f 83 8e 00 00 00    	jae    140001c20 <_pei386_runtime_relocator+0x1c0>
   140001b92:	8b 03                	mov    eax,DWORD PTR [rbx]
   140001b94:	8b 4b 08             	mov    ecx,DWORD PTR [rbx+0x8]
   140001b97:	8b 7b 04             	mov    edi,DWORD PTR [rbx+0x4]
   140001b9a:	4c 01 f0             	add    rax,r14
   140001b9d:	0f b6 d1             	movzx  edx,cl
   140001ba0:	4c 8b 08             	mov    r9,QWORD PTR [rax]
   140001ba3:	4c 01 f7             	add    rdi,r14
   140001ba6:	83 fa 20             	cmp    edx,0x20
   140001ba9:	0f 84 29 01 00 00    	je     140001cd8 <_pei386_runtime_relocator+0x278>
   140001baf:	0f 87 eb 00 00 00    	ja     140001ca0 <_pei386_runtime_relocator+0x240>
   140001bb5:	83 fa 08             	cmp    edx,0x8
   140001bb8:	74 86                	je     140001b40 <_pei386_runtime_relocator+0xe0>
   140001bba:	83 fa 10             	cmp    edx,0x10
   140001bbd:	0f 85 df 01 00 00    	jne    140001da2 <_pei386_runtime_relocator+0x342>
   140001bc3:	0f b7 37             	movzx  esi,WORD PTR [rdi]
   140001bc6:	81 e1 c0 00 00 00    	and    ecx,0xc0
   140001bcc:	66 85 f6             	test   si,si
   140001bcf:	0f 89 6b 01 00 00    	jns    140001d40 <_pei386_runtime_relocator+0x2e0>
   140001bd5:	48 81 ce 00 00 ff ff 	or     rsi,0xffffffffffff0000
   140001bdc:	48 29 c6             	sub    rsi,rax
   140001bdf:	4c 01 ce             	add    rsi,r9
   140001be2:	85 c9                	test   ecx,ecx
   140001be4:	75 1a                	jne    140001c00 <_pei386_runtime_relocator+0x1a0>
   140001be6:	48 81 fe 00 80 ff ff 	cmp    rsi,0xffffffffffff8000
   140001bed:	0f 8c cc 00 00 00    	jl     140001cbf <_pei386_runtime_relocator+0x25f>
   140001bf3:	48 81 fe ff ff 00 00 	cmp    rsi,0xffff
   140001bfa:	0f 8f bf 00 00 00    	jg     140001cbf <_pei386_runtime_relocator+0x25f>
   140001c00:	48 89 f9             	mov    rcx,rdi
   140001c03:	48 83 c3 0c          	add    rbx,0xc
   140001c07:	e8 e4 fc ff ff       	call   1400018f0 <mark_section_writable>
   140001c0c:	66 89 37             	mov    WORD PTR [rdi],si
   140001c0f:	4c 39 eb             	cmp    rbx,r13
   140001c12:	0f 82 7a ff ff ff    	jb     140001b92 <_pei386_runtime_relocator+0x132>
   140001c18:	0f 1f 84 00 00 00 00 	nop    DWORD PTR [rax+rax*1+0x0]
   140001c1f:	00 
   140001c20:	8b 15 7e b4 00 00    	mov    edx,DWORD PTR [rip+0xb47e]        # 14000d0a4 <maxSections>
   140001c26:	85 d2                	test   edx,edx
   140001c28:	0f 8e 53 fe ff ff    	jle    140001a81 <_pei386_runtime_relocator+0x21>
   140001c2e:	48 8b 35 f7 c5 00 00 	mov    rsi,QWORD PTR [rip+0xc5f7]        # 14000e22c <__imp_VirtualProtect>
   140001c35:	31 db                	xor    ebx,ebx
   140001c37:	48 8d 7d fc          	lea    rdi,[rbp-0x4]
   140001c3b:	0f 1f 44 00 00       	nop    DWORD PTR [rax+rax*1+0x0]
   140001c40:	48 8b 05 61 b4 00 00 	mov    rax,QWORD PTR [rip+0xb461]        # 14000d0a8 <the_secs>
   140001c47:	48 01 d8             	add    rax,rbx
   140001c4a:	44 8b 00             	mov    r8d,DWORD PTR [rax]
   140001c4d:	45 85 c0             	test   r8d,r8d
   140001c50:	74 0d                	je     140001c5f <_pei386_runtime_relocator+0x1ff>
   140001c52:	48 8b 50 10          	mov    rdx,QWORD PTR [rax+0x10]
   140001c56:	48 8b 48 08          	mov    rcx,QWORD PTR [rax+0x8]
   140001c5a:	49 89 f9             	mov    r9,rdi
   140001c5d:	ff d6                	call   rsi
   140001c5f:	41 83 c4 01          	add    r12d,0x1
   140001c63:	48 83 c3 28          	add    rbx,0x28
   140001c67:	44 3b 25 36 b4 00 00 	cmp    r12d,DWORD PTR [rip+0xb436]        # 14000d0a4 <maxSections>
   140001c6e:	7c d0                	jl     140001c40 <_pei386_runtime_relocator+0x1e0>
   140001c70:	e9 0c fe ff ff       	jmp    140001a81 <_pei386_runtime_relocator+0x21>
   140001c75:	0f 1f 00             	nop    DWORD PTR [rax]
   140001c78:	85 d2                	test   edx,edx
   140001c7a:	0f 85 f0 00 00 00    	jne    140001d70 <_pei386_runtime_relocator+0x310>
   140001c80:	8b 43 04             	mov    eax,DWORD PTR [rbx+0x4]
   140001c83:	89 c2                	mov    edx,eax
   140001c85:	0b 53 08             	or     edx,DWORD PTR [rbx+0x8]
   140001c88:	0f 85 7c fe ff ff    	jne    140001b0a <_pei386_runtime_relocator+0xaa>
   140001c8e:	48 83 c3 0c          	add    rbx,0xc
   140001c92:	e9 66 fe ff ff       	jmp    140001afd <_pei386_runtime_relocator+0x9d>
   140001c97:	66 0f 1f 84 00 00 00 	nop    WORD PTR [rax+rax*1+0x0]
   140001c9e:	00 00 
   140001ca0:	83 fa 40             	cmp    edx,0x40
   140001ca3:	0f 85 f9 00 00 00    	jne    140001da2 <_pei386_runtime_relocator+0x342>
   140001ca9:	48 8b 37             	mov    rsi,QWORD PTR [rdi]
   140001cac:	48 29 c6             	sub    rsi,rax
   140001caf:	4c 01 ce             	add    rsi,r9
   140001cb2:	81 e1 c0 00 00 00    	and    ecx,0xc0
   140001cb8:	75 66                	jne    140001d20 <_pei386_runtime_relocator+0x2c0>
   140001cba:	48 85 f6             	test   rsi,rsi
   140001cbd:	78 61                	js     140001d20 <_pei386_runtime_relocator+0x2c0>
   140001cbf:	48 89 74 24 20       	mov    QWORD PTR [rsp+0x20],rsi
   140001cc4:	49 89 f8             	mov    r8,rdi
   140001cc7:	48 8d 0d fa 75 00 00 	lea    rcx,[rip+0x75fa]        # 1400092c8 <.rdata+0x108>
   140001cce:	e8 ad fb ff ff       	call   140001880 <__report_error>
   140001cd3:	0f 1f 44 00 00       	nop    DWORD PTR [rax+rax*1+0x0]
   140001cd8:	8b 37                	mov    esi,DWORD PTR [rdi]
   140001cda:	81 e1 c0 00 00 00    	and    ecx,0xc0
   140001ce0:	85 f6                	test   esi,esi
   140001ce2:	79 4c                	jns    140001d30 <_pei386_runtime_relocator+0x2d0>
   140001ce4:	49 bb 00 00 00 00 ff 	movabs r11,0xffffffff00000000
   140001ceb:	ff ff ff 
   140001cee:	4c 09 de             	or     rsi,r11
   140001cf1:	48 29 c6             	sub    rsi,rax
   140001cf4:	4c 01 ce             	add    rsi,r9
   140001cf7:	85 c9                	test   ecx,ecx
   140001cf9:	75 0f                	jne    140001d0a <_pei386_runtime_relocator+0x2aa>
   140001cfb:	4c 39 fe             	cmp    rsi,r15
   140001cfe:	7e bf                	jle    140001cbf <_pei386_runtime_relocator+0x25f>
   140001d00:	b8 ff ff ff ff       	mov    eax,0xffffffff
   140001d05:	48 39 c6             	cmp    rsi,rax
   140001d08:	7f b5                	jg     140001cbf <_pei386_runtime_relocator+0x25f>
   140001d0a:	48 89 f9             	mov    rcx,rdi
   140001d0d:	e8 de fb ff ff       	call   1400018f0 <mark_section_writable>
   140001d12:	89 37                	mov    DWORD PTR [rdi],esi
   140001d14:	e9 6c fe ff ff       	jmp    140001b85 <_pei386_runtime_relocator+0x125>
   140001d19:	0f 1f 80 00 00 00 00 	nop    DWORD PTR [rax+0x0]
   140001d20:	48 89 f9             	mov    rcx,rdi
   140001d23:	e8 c8 fb ff ff       	call   1400018f0 <mark_section_writable>
   140001d28:	48 89 37             	mov    QWORD PTR [rdi],rsi
   140001d2b:	e9 55 fe ff ff       	jmp    140001b85 <_pei386_runtime_relocator+0x125>
   140001d30:	48 29 c6             	sub    rsi,rax
   140001d33:	4c 01 ce             	add    rsi,r9
   140001d36:	85 c9                	test   ecx,ecx
   140001d38:	74 c1                	je     140001cfb <_pei386_runtime_relocator+0x29b>
   140001d3a:	eb ce                	jmp    140001d0a <_pei386_runtime_relocator+0x2aa>
   140001d3c:	0f 1f 40 00          	nop    DWORD PTR [rax+0x0]
   140001d40:	48 29 c6             	sub    rsi,rax
   140001d43:	4c 01 ce             	add    rsi,r9
   140001d46:	85 c9                	test   ecx,ecx
   140001d48:	0f 84 98 fe ff ff    	je     140001be6 <_pei386_runtime_relocator+0x186>
   140001d4e:	e9 ad fe ff ff       	jmp    140001c00 <_pei386_runtime_relocator+0x1a0>
   140001d53:	0f 1f 44 00 00       	nop    DWORD PTR [rax+rax*1+0x0]
   140001d58:	48 29 c6             	sub    rsi,rax
   140001d5b:	4c 01 ce             	add    rsi,r9
   140001d5e:	85 c9                	test   ecx,ecx
   140001d60:	0f 84 fd fd ff ff    	je     140001b63 <_pei386_runtime_relocator+0x103>
   140001d66:	e9 0f fe ff ff       	jmp    140001b7a <_pei386_runtime_relocator+0x11a>
   140001d6b:	0f 1f 44 00 00       	nop    DWORD PTR [rax+rax*1+0x0]
   140001d70:	4c 39 eb             	cmp    rbx,r13
   140001d73:	0f 83 08 fd ff ff    	jae    140001a81 <_pei386_runtime_relocator+0x21>
   140001d79:	4c 8b 35 c0 79 00 00 	mov    r14,QWORD PTR [rip+0x79c0]        # 140009740 <.refptr.__image_base__>
   140001d80:	8b 73 04             	mov    esi,DWORD PTR [rbx+0x4]
   140001d83:	8b 3b                	mov    edi,DWORD PTR [rbx]
   140001d85:	48 83 c3 08          	add    rbx,0x8
   140001d89:	4c 01 f6             	add    rsi,r14
   140001d8c:	03 3e                	add    edi,DWORD PTR [rsi]
   140001d8e:	48 89 f1             	mov    rcx,rsi
   140001d91:	e8 5a fb ff ff       	call   1400018f0 <mark_section_writable>
   140001d96:	89 3e                	mov    DWORD PTR [rsi],edi
   140001d98:	4c 39 eb             	cmp    rbx,r13
   140001d9b:	72 e3                	jb     140001d80 <_pei386_runtime_relocator+0x320>
   140001d9d:	e9 7e fe ff ff       	jmp    140001c20 <_pei386_runtime_relocator+0x1c0>
   140001da2:	48 8d 0d ef 74 00 00 	lea    rcx,[rip+0x74ef]        # 140009298 <.rdata+0xd8>
   140001da9:	e8 d2 fa ff ff       	call   140001880 <__report_error>
   140001dae:	48 8d 0d ab 74 00 00 	lea    rcx,[rip+0x74ab]        # 140009260 <.rdata+0xa0>
   140001db5:	e8 c6 fa ff ff       	call   140001880 <__report_error>
   140001dba:	90                   	nop
   140001dbb:	90                   	nop
   140001dbc:	90                   	nop
   140001dbd:	90                   	nop
   140001dbe:	90                   	nop
   140001dbf:	90                   	nop

0000000140001dc0 <__mingw_raise_matherr>:
   140001dc0:	48 83 ec 58          	sub    rsp,0x58
   140001dc4:	48 8b 05 e5 b2 00 00 	mov    rax,QWORD PTR [rip+0xb2e5]        # 14000d0b0 <stUserMathErr>
   140001dcb:	66 0f 14 d3          	unpcklpd xmm2,xmm3
   140001dcf:	48 85 c0             	test   rax,rax
   140001dd2:	74 25                	je     140001df9 <__mingw_raise_matherr+0x39>
   140001dd4:	f2 0f 10 84 24 80 00 	movsd  xmm0,QWORD PTR [rsp+0x80]
   140001ddb:	00 00 
   140001ddd:	89 4c 24 20          	mov    DWORD PTR [rsp+0x20],ecx
   140001de1:	48 8d 4c 24 20       	lea    rcx,[rsp+0x20]
   140001de6:	48 89 54 24 28       	mov    QWORD PTR [rsp+0x28],rdx
   140001deb:	0f 11 54 24 30       	movups XMMWORD PTR [rsp+0x30],xmm2
   140001df0:	f2 0f 11 44 24 40    	movsd  QWORD PTR [rsp+0x40],xmm0
   140001df6:	ff d0                	call   rax
   140001df8:	90                   	nop
   140001df9:	48 83 c4 58          	add    rsp,0x58
   140001dfd:	c3                   	ret
   140001dfe:	66 90                	xchg   ax,ax

0000000140001e00 <__mingw_setusermatherr>:
   140001e00:	48 89 0d a9 b2 00 00 	mov    QWORD PTR [rip+0xb2a9],rcx        # 14000d0b0 <stUserMathErr>
   140001e07:	e9 54 5d 00 00       	jmp    140007b60 <__setusermatherr>
   140001e0c:	90                   	nop
   140001e0d:	90                   	nop
   140001e0e:	90                   	nop
   140001e0f:	90                   	nop

0000000140001e10 <_gnu_exception_handler>:
   140001e10:	53                   	push   rbx
   140001e11:	48 83 ec 20          	sub    rsp,0x20
   140001e15:	48 8b 11             	mov    rdx,QWORD PTR [rcx]
   140001e18:	8b 02                	mov    eax,DWORD PTR [rdx]
   140001e1a:	48 89 cb             	mov    rbx,rcx
   140001e1d:	89 c1                	mov    ecx,eax
   140001e1f:	81 e1 ff ff ff 20    	and    ecx,0x20ffffff
   140001e25:	81 f9 43 43 47 20    	cmp    ecx,0x20474343
   140001e2b:	0f 84 9f 00 00 00    	je     140001ed0 <_gnu_exception_handler+0xc0>
   140001e31:	3d 96 00 00 c0       	cmp    eax,0xc0000096
   140001e36:	77 77                	ja     140001eaf <_gnu_exception_handler+0x9f>
   140001e38:	3d 8b 00 00 c0       	cmp    eax,0xc000008b
   140001e3d:	76 21                	jbe    140001e60 <_gnu_exception_handler+0x50>
   140001e3f:	05 73 ff ff 3f       	add    eax,0x3fffff73
   140001e44:	83 f8 09             	cmp    eax,0x9
   140001e47:	77 54                	ja     140001e9d <_gnu_exception_handler+0x8d>
   140001e49:	48 8d 15 d0 74 00 00 	lea    rdx,[rip+0x74d0]        # 140009320 <.rdata>
   140001e50:	48 63 04 82          	movsxd rax,DWORD PTR [rdx+rax*4]
   140001e54:	48 01 d0             	add    rax,rdx
   140001e57:	ff e0                	jmp    rax
   140001e59:	0f 1f 80 00 00 00 00 	nop    DWORD PTR [rax+0x0]
   140001e60:	3d 05 00 00 c0       	cmp    eax,0xc0000005
   140001e65:	0f 84 d5 00 00 00    	je     140001f40 <_gnu_exception_handler+0x130>
   140001e6b:	76 3b                	jbe    140001ea8 <_gnu_exception_handler+0x98>
   140001e6d:	3d 08 00 00 c0       	cmp    eax,0xc0000008
   140001e72:	74 29                	je     140001e9d <_gnu_exception_handler+0x8d>
   140001e74:	3d 1d 00 00 c0       	cmp    eax,0xc000001d
   140001e79:	75 34                	jne    140001eaf <_gnu_exception_handler+0x9f>
   140001e7b:	31 d2                	xor    edx,edx
   140001e7d:	b9 04 00 00 00       	mov    ecx,0x4
   140001e82:	e8 71 5d 00 00       	call   140007bf8 <signal>
   140001e87:	48 83 f8 01          	cmp    rax,0x1
   140001e8b:	0f 84 d6 00 00 00    	je     140001f67 <_gnu_exception_handler+0x157>
   140001e91:	48 85 c0             	test   rax,rax
   140001e94:	74 19                	je     140001eaf <_gnu_exception_handler+0x9f>
   140001e96:	b9 04 00 00 00       	mov    ecx,0x4
   140001e9b:	ff d0                	call   rax
   140001e9d:	b8 ff ff ff ff       	mov    eax,0xffffffff
   140001ea2:	48 83 c4 20          	add    rsp,0x20
   140001ea6:	5b                   	pop    rbx
   140001ea7:	c3                   	ret
   140001ea8:	3d 02 00 00 80       	cmp    eax,0x80000002
   140001ead:	74 ee                	je     140001e9d <_gnu_exception_handler+0x8d>
   140001eaf:	48 8b 05 1a b2 00 00 	mov    rax,QWORD PTR [rip+0xb21a]        # 14000d0d0 <__mingw_oldexcpt_handler>
   140001eb6:	48 85 c0             	test   rax,rax
   140001eb9:	74 25                	je     140001ee0 <_gnu_exception_handler+0xd0>
   140001ebb:	48 89 d9             	mov    rcx,rbx
   140001ebe:	48 83 c4 20          	add    rsp,0x20
   140001ec2:	5b                   	pop    rbx
   140001ec3:	48 ff e0             	rex.W jmp rax
   140001ec6:	66 2e 0f 1f 84 00 00 	cs nop WORD PTR [rax+rax*1+0x0]
   140001ecd:	00 00 00 
   140001ed0:	f6 42 04 01          	test   BYTE PTR [rdx+0x4],0x1
   140001ed4:	0f 85 57 ff ff ff    	jne    140001e31 <_gnu_exception_handler+0x21>
   140001eda:	eb c1                	jmp    140001e9d <_gnu_exception_handler+0x8d>
   140001edc:	0f 1f 40 00          	nop    DWORD PTR [rax+0x0]
   140001ee0:	31 c0                	xor    eax,eax
   140001ee2:	48 83 c4 20          	add    rsp,0x20
   140001ee6:	5b                   	pop    rbx
   140001ee7:	c3                   	ret
   140001ee8:	0f 1f 84 00 00 00 00 	nop    DWORD PTR [rax+rax*1+0x0]
   140001eef:	00 
   140001ef0:	31 d2                	xor    edx,edx
   140001ef2:	b9 08 00 00 00       	mov    ecx,0x8
   140001ef7:	e8 fc 5c 00 00       	call   140007bf8 <signal>
   140001efc:	48 83 f8 01          	cmp    rax,0x1
   140001f00:	0f 84 89 00 00 00    	je     140001f8f <_gnu_exception_handler+0x17f>
   140001f06:	48 85 c0             	test   rax,rax
   140001f09:	74 a4                	je     140001eaf <_gnu_exception_handler+0x9f>
   140001f0b:	b9 08 00 00 00       	mov    ecx,0x8
   140001f10:	ff d0                	call   rax
   140001f12:	eb 89                	jmp    140001e9d <_gnu_exception_handler+0x8d>
   140001f14:	0f 1f 40 00          	nop    DWORD PTR [rax+0x0]
   140001f18:	31 d2                	xor    edx,edx
   140001f1a:	b9 08 00 00 00       	mov    ecx,0x8
   140001f1f:	e8 d4 5c 00 00       	call   140007bf8 <signal>
   140001f24:	48 83 f8 01          	cmp    rax,0x1
   140001f28:	75 dc                	jne    140001f06 <_gnu_exception_handler+0xf6>
   140001f2a:	ba 01 00 00 00       	mov    edx,0x1
   140001f2f:	b9 08 00 00 00       	mov    ecx,0x8
   140001f34:	e8 bf 5c 00 00       	call   140007bf8 <signal>
   140001f39:	e9 5f ff ff ff       	jmp    140001e9d <_gnu_exception_handler+0x8d>
   140001f3e:	66 90                	xchg   ax,ax
   140001f40:	31 d2                	xor    edx,edx
   140001f42:	b9 0b 00 00 00       	mov    ecx,0xb
   140001f47:	e8 ac 5c 00 00       	call   140007bf8 <signal>
   140001f4c:	48 83 f8 01          	cmp    rax,0x1
   140001f50:	74 29                	je     140001f7b <_gnu_exception_handler+0x16b>
   140001f52:	48 85 c0             	test   rax,rax
   140001f55:	0f 84 54 ff ff ff    	je     140001eaf <_gnu_exception_handler+0x9f>
   140001f5b:	b9 0b 00 00 00       	mov    ecx,0xb
   140001f60:	ff d0                	call   rax
   140001f62:	e9 36 ff ff ff       	jmp    140001e9d <_gnu_exception_handler+0x8d>
   140001f67:	ba 01 00 00 00       	mov    edx,0x1
   140001f6c:	b9 04 00 00 00       	mov    ecx,0x4
   140001f71:	e8 82 5c 00 00       	call   140007bf8 <signal>
   140001f76:	e9 22 ff ff ff       	jmp    140001e9d <_gnu_exception_handler+0x8d>
   140001f7b:	ba 01 00 00 00       	mov    edx,0x1
   140001f80:	b9 0b 00 00 00       	mov    ecx,0xb
   140001f85:	e8 6e 5c 00 00       	call   140007bf8 <signal>
   140001f8a:	e9 0e ff ff ff       	jmp    140001e9d <_gnu_exception_handler+0x8d>
   140001f8f:	ba 01 00 00 00       	mov    edx,0x1
   140001f94:	b9 08 00 00 00       	mov    ecx,0x8
   140001f99:	e8 5a 5c 00 00       	call   140007bf8 <signal>
   140001f9e:	e8 cd f8 ff ff       	call   140001870 <_fpreset>
   140001fa3:	e9 f5 fe ff ff       	jmp    140001e9d <_gnu_exception_handler+0x8d>
   140001fa8:	90                   	nop
   140001fa9:	90                   	nop
   140001faa:	90                   	nop
   140001fab:	90                   	nop
   140001fac:	90                   	nop
   140001fad:	90                   	nop
   140001fae:	90                   	nop
   140001faf:	90                   	nop

0000000140001fb0 <__mingwthr_run_key_dtors.part.0>:
   140001fb0:	41 54                	push   r12
   140001fb2:	55                   	push   rbp
   140001fb3:	57                   	push   rdi
   140001fb4:	56                   	push   rsi
   140001fb5:	53                   	push   rbx
   140001fb6:	48 83 ec 20          	sub    rsp,0x20
   140001fba:	4c 8d 25 3f b1 00 00 	lea    r12,[rip+0xb13f]        # 14000d100 <__mingwthr_cs>
   140001fc1:	4c 89 e1             	mov    rcx,r12
   140001fc4:	ff 15 12 c2 00 00    	call   QWORD PTR [rip+0xc212]        # 14000e1dc <__imp_EnterCriticalSection>
   140001fca:	48 8b 1d 0f b1 00 00 	mov    rbx,QWORD PTR [rip+0xb10f]        # 14000d0e0 <key_dtor_list>
   140001fd1:	48 85 db             	test   rbx,rbx
   140001fd4:	74 36                	je     14000200c <__mingwthr_run_key_dtors.part.0+0x5c>
   140001fd6:	48 8b 2d 47 c2 00 00 	mov    rbp,QWORD PTR [rip+0xc247]        # 14000e224 <__imp_TlsGetValue>
   140001fdd:	48 8b 3d 00 c2 00 00 	mov    rdi,QWORD PTR [rip+0xc200]        # 14000e1e4 <__imp_GetLastError>
   140001fe4:	0f 1f 40 00          	nop    DWORD PTR [rax+0x0]
   140001fe8:	8b 0b                	mov    ecx,DWORD PTR [rbx]
   140001fea:	ff d5                	call   rbp
   140001fec:	48 89 c6             	mov    rsi,rax
   140001fef:	ff d7                	call   rdi
   140001ff1:	85 c0                	test   eax,eax
   140001ff3:	75 0e                	jne    140002003 <__mingwthr_run_key_dtors.part.0+0x53>
   140001ff5:	48 85 f6             	test   rsi,rsi
   140001ff8:	74 09                	je     140002003 <__mingwthr_run_key_dtors.part.0+0x53>
   140001ffa:	48 8b 43 08          	mov    rax,QWORD PTR [rbx+0x8]
   140001ffe:	48 89 f1             	mov    rcx,rsi
   140002001:	ff d0                	call   rax
   140002003:	48 8b 5b 10          	mov    rbx,QWORD PTR [rbx+0x10]
   140002007:	48 85 db             	test   rbx,rbx
   14000200a:	75 dc                	jne    140001fe8 <__mingwthr_run_key_dtors.part.0+0x38>
   14000200c:	4c 89 e1             	mov    rcx,r12
   14000200f:	48 83 c4 20          	add    rsp,0x20
   140002013:	5b                   	pop    rbx
   140002014:	5e                   	pop    rsi
   140002015:	5f                   	pop    rdi
   140002016:	5d                   	pop    rbp
   140002017:	41 5c                	pop    r12
   140002019:	48 ff 25 e4 c1 00 00 	rex.W jmp QWORD PTR [rip+0xc1e4]        # 14000e204 <__imp_LeaveCriticalSection>

0000000140002020 <___w64_mingwthr_add_key_dtor>:
   140002020:	57                   	push   rdi
   140002021:	56                   	push   rsi
   140002022:	53                   	push   rbx
   140002023:	48 83 ec 20          	sub    rsp,0x20
   140002027:	8b 05 bb b0 00 00    	mov    eax,DWORD PTR [rip+0xb0bb]        # 14000d0e8 <__mingwthr_cs_init>
   14000202d:	89 cf                	mov    edi,ecx
   14000202f:	48 89 d6             	mov    rsi,rdx
   140002032:	85 c0                	test   eax,eax
   140002034:	75 0a                	jne    140002040 <___w64_mingwthr_add_key_dtor+0x20>
   140002036:	31 c0                	xor    eax,eax
   140002038:	48 83 c4 20          	add    rsp,0x20
   14000203c:	5b                   	pop    rbx
   14000203d:	5e                   	pop    rsi
   14000203e:	5f                   	pop    rdi
   14000203f:	c3                   	ret
   140002040:	ba 18 00 00 00       	mov    edx,0x18
   140002045:	b9 01 00 00 00       	mov    ecx,0x1
   14000204a:	e8 59 5b 00 00       	call   140007ba8 <calloc>
   14000204f:	48 89 c3             	mov    rbx,rax
   140002052:	48 85 c0             	test   rax,rax
   140002055:	74 33                	je     14000208a <___w64_mingwthr_add_key_dtor+0x6a>
   140002057:	48 89 70 08          	mov    QWORD PTR [rax+0x8],rsi
   14000205b:	48 8d 35 9e b0 00 00 	lea    rsi,[rip+0xb09e]        # 14000d100 <__mingwthr_cs>
   140002062:	89 38                	mov    DWORD PTR [rax],edi
   140002064:	48 89 f1             	mov    rcx,rsi
   140002067:	ff 15 6f c1 00 00    	call   QWORD PTR [rip+0xc16f]        # 14000e1dc <__imp_EnterCriticalSection>
   14000206d:	48 8b 05 6c b0 00 00 	mov    rax,QWORD PTR [rip+0xb06c]        # 14000d0e0 <key_dtor_list>
   140002074:	48 89 f1             	mov    rcx,rsi
   140002077:	48 89 1d 62 b0 00 00 	mov    QWORD PTR [rip+0xb062],rbx        # 14000d0e0 <key_dtor_list>
   14000207e:	48 89 43 10          	mov    QWORD PTR [rbx+0x10],rax
   140002082:	ff 15 7c c1 00 00    	call   QWORD PTR [rip+0xc17c]        # 14000e204 <__imp_LeaveCriticalSection>
   140002088:	eb ac                	jmp    140002036 <___w64_mingwthr_add_key_dtor+0x16>
   14000208a:	83 c8 ff             	or     eax,0xffffffff
   14000208d:	eb a9                	jmp    140002038 <___w64_mingwthr_add_key_dtor+0x18>
   14000208f:	90                   	nop

0000000140002090 <___w64_mingwthr_remove_key_dtor>:
   140002090:	56                   	push   rsi
   140002091:	53                   	push   rbx
   140002092:	48 83 ec 28          	sub    rsp,0x28
   140002096:	8b 05 4c b0 00 00    	mov    eax,DWORD PTR [rip+0xb04c]        # 14000d0e8 <__mingwthr_cs_init>
   14000209c:	89 cb                	mov    ebx,ecx
   14000209e:	85 c0                	test   eax,eax
   1400020a0:	75 0e                	jne    1400020b0 <___w64_mingwthr_remove_key_dtor+0x20>
   1400020a2:	31 c0                	xor    eax,eax
   1400020a4:	48 83 c4 28          	add    rsp,0x28
   1400020a8:	5b                   	pop    rbx
   1400020a9:	5e                   	pop    rsi
   1400020aa:	c3                   	ret
   1400020ab:	0f 1f 44 00 00       	nop    DWORD PTR [rax+rax*1+0x0]
   1400020b0:	48 8d 35 49 b0 00 00 	lea    rsi,[rip+0xb049]        # 14000d100 <__mingwthr_cs>
   1400020b7:	48 89 f1             	mov    rcx,rsi
   1400020ba:	ff 15 1c c1 00 00    	call   QWORD PTR [rip+0xc11c]        # 14000e1dc <__imp_EnterCriticalSection>
   1400020c0:	48 8b 0d 19 b0 00 00 	mov    rcx,QWORD PTR [rip+0xb019]        # 14000d0e0 <key_dtor_list>
   1400020c7:	48 85 c9             	test   rcx,rcx
   1400020ca:	74 27                	je     1400020f3 <___w64_mingwthr_remove_key_dtor+0x63>
   1400020cc:	31 d2                	xor    edx,edx
   1400020ce:	eb 0b                	jmp    1400020db <___w64_mingwthr_remove_key_dtor+0x4b>
   1400020d0:	48 89 ca             	mov    rdx,rcx
   1400020d3:	48 85 c0             	test   rax,rax
   1400020d6:	74 1b                	je     1400020f3 <___w64_mingwthr_remove_key_dtor+0x63>
   1400020d8:	48 89 c1             	mov    rcx,rax
   1400020db:	8b 01                	mov    eax,DWORD PTR [rcx]
   1400020dd:	39 d8                	cmp    eax,ebx
   1400020df:	48 8b 41 10          	mov    rax,QWORD PTR [rcx+0x10]
   1400020e3:	75 eb                	jne    1400020d0 <___w64_mingwthr_remove_key_dtor+0x40>
   1400020e5:	48 85 d2             	test   rdx,rdx
   1400020e8:	74 1e                	je     140002108 <___w64_mingwthr_remove_key_dtor+0x78>
   1400020ea:	48 89 42 10          	mov    QWORD PTR [rdx+0x10],rax
   1400020ee:	e8 d5 5a 00 00       	call   140007bc8 <free>
   1400020f3:	48 89 f1             	mov    rcx,rsi
   1400020f6:	ff 15 08 c1 00 00    	call   QWORD PTR [rip+0xc108]        # 14000e204 <__imp_LeaveCriticalSection>
   1400020fc:	31 c0                	xor    eax,eax
   1400020fe:	48 83 c4 28          	add    rsp,0x28
   140002102:	5b                   	pop    rbx
   140002103:	5e                   	pop    rsi
   140002104:	c3                   	ret
   140002105:	0f 1f 00             	nop    DWORD PTR [rax]
   140002108:	48 89 05 d1 af 00 00 	mov    QWORD PTR [rip+0xafd1],rax        # 14000d0e0 <key_dtor_list>
   14000210f:	eb dd                	jmp    1400020ee <___w64_mingwthr_remove_key_dtor+0x5e>
   140002111:	66 66 2e 0f 1f 84 00 	data16 cs nop WORD PTR [rax+rax*1+0x0]
   140002118:	00 00 00 00 
   14000211c:	0f 1f 40 00          	nop    DWORD PTR [rax+0x0]

0000000140002120 <__mingw_TLScallback>:
   140002120:	53                   	push   rbx
   140002121:	48 83 ec 20          	sub    rsp,0x20
   140002125:	83 fa 02             	cmp    edx,0x2
   140002128:	0f 84 b2 00 00 00    	je     1400021e0 <__mingw_TLScallback+0xc0>
   14000212e:	77 30                	ja     140002160 <__mingw_TLScallback+0x40>
   140002130:	85 d2                	test   edx,edx
   140002132:	74 4c                	je     140002180 <__mingw_TLScallback+0x60>
   140002134:	8b 05 ae af 00 00    	mov    eax,DWORD PTR [rip+0xafae]        # 14000d0e8 <__mingwthr_cs_init>
   14000213a:	85 c0                	test   eax,eax
   14000213c:	0f 84 be 00 00 00    	je     140002200 <__mingw_TLScallback+0xe0>
   140002142:	c7 05 9c af 00 00 01 	mov    DWORD PTR [rip+0xaf9c],0x1        # 14000d0e8 <__mingwthr_cs_init>
   140002149:	00 00 00 
   14000214c:	b8 01 00 00 00       	mov    eax,0x1
   140002151:	48 83 c4 20          	add    rsp,0x20
   140002155:	5b                   	pop    rbx
   140002156:	c3                   	ret
   140002157:	66 0f 1f 84 00 00 00 	nop    WORD PTR [rax+rax*1+0x0]
   14000215e:	00 00 
   140002160:	83 fa 03             	cmp    edx,0x3
   140002163:	75 e7                	jne    14000214c <__mingw_TLScallback+0x2c>
   140002165:	8b 05 7d af 00 00    	mov    eax,DWORD PTR [rip+0xaf7d]        # 14000d0e8 <__mingwthr_cs_init>
   14000216b:	85 c0                	test   eax,eax
   14000216d:	74 dd                	je     14000214c <__mingw_TLScallback+0x2c>
   14000216f:	e8 3c fe ff ff       	call   140001fb0 <__mingwthr_run_key_dtors.part.0>
   140002174:	eb d6                	jmp    14000214c <__mingw_TLScallback+0x2c>
   140002176:	66 2e 0f 1f 84 00 00 	cs nop WORD PTR [rax+rax*1+0x0]
   14000217d:	00 00 00 
   140002180:	8b 05 62 af 00 00    	mov    eax,DWORD PTR [rip+0xaf62]        # 14000d0e8 <__mingwthr_cs_init>
   140002186:	85 c0                	test   eax,eax
   140002188:	75 66                	jne    1400021f0 <__mingw_TLScallback+0xd0>
   14000218a:	8b 05 58 af 00 00    	mov    eax,DWORD PTR [rip+0xaf58]        # 14000d0e8 <__mingwthr_cs_init>
   140002190:	83 f8 01             	cmp    eax,0x1
   140002193:	75 b7                	jne    14000214c <__mingw_TLScallback+0x2c>
   140002195:	48 8b 1d 44 af 00 00 	mov    rbx,QWORD PTR [rip+0xaf44]        # 14000d0e0 <key_dtor_list>
   14000219c:	48 85 db             	test   rbx,rbx
   14000219f:	74 18                	je     1400021b9 <__mingw_TLScallback+0x99>
   1400021a1:	0f 1f 80 00 00 00 00 	nop    DWORD PTR [rax+0x0]
   1400021a8:	48 89 d9             	mov    rcx,rbx
   1400021ab:	48 8b 5b 10          	mov    rbx,QWORD PTR [rbx+0x10]
   1400021af:	e8 14 5a 00 00       	call   140007bc8 <free>
   1400021b4:	48 85 db             	test   rbx,rbx
   1400021b7:	75 ef                	jne    1400021a8 <__mingw_TLScallback+0x88>
   1400021b9:	48 8d 0d 40 af 00 00 	lea    rcx,[rip+0xaf40]        # 14000d100 <__mingwthr_cs>
   1400021c0:	48 c7 05 15 af 00 00 	mov    QWORD PTR [rip+0xaf15],0x0        # 14000d0e0 <key_dtor_list>
   1400021c7:	00 00 00 00 
   1400021cb:	c7 05 13 af 00 00 00 	mov    DWORD PTR [rip+0xaf13],0x0        # 14000d0e8 <__mingwthr_cs_init>
   1400021d2:	00 00 00 
   1400021d5:	ff 15 f9 bf 00 00    	call   QWORD PTR [rip+0xbff9]        # 14000e1d4 <__IAT_start__>
   1400021db:	e9 6c ff ff ff       	jmp    14000214c <__mingw_TLScallback+0x2c>
   1400021e0:	e8 8b f6 ff ff       	call   140001870 <_fpreset>
   1400021e5:	b8 01 00 00 00       	mov    eax,0x1
   1400021ea:	48 83 c4 20          	add    rsp,0x20
   1400021ee:	5b                   	pop    rbx
   1400021ef:	c3                   	ret
   1400021f0:	e8 bb fd ff ff       	call   140001fb0 <__mingwthr_run_key_dtors.part.0>
   1400021f5:	eb 93                	jmp    14000218a <__mingw_TLScallback+0x6a>
   1400021f7:	66 0f 1f 84 00 00 00 	nop    WORD PTR [rax+rax*1+0x0]
   1400021fe:	00 00 
   140002200:	48 8d 0d f9 ae 00 00 	lea    rcx,[rip+0xaef9]        # 14000d100 <__mingwthr_cs>
   140002207:	ff 15 e7 bf 00 00    	call   QWORD PTR [rip+0xbfe7]        # 14000e1f4 <__imp_InitializeCriticalSection>
   14000220d:	e9 30 ff ff ff       	jmp    140002142 <__mingw_TLScallback+0x22>
   140002212:	90                   	nop
   140002213:	90                   	nop
   140002214:	90                   	nop
   140002215:	90                   	nop
   140002216:	90                   	nop
   140002217:	90                   	nop
   140002218:	90                   	nop
   140002219:	90                   	nop
   14000221a:	90                   	nop
   14000221b:	90                   	nop
   14000221c:	90                   	nop
   14000221d:	90                   	nop
   14000221e:	90                   	nop
   14000221f:	90                   	nop

0000000140002220 <_ValidateImageBase>:
   140002220:	31 c0                	xor    eax,eax
   140002222:	66 81 39 4d 5a       	cmp    WORD PTR [rcx],0x5a4d
   140002227:	75 0f                	jne    140002238 <_ValidateImageBase+0x18>
   140002229:	48 63 51 3c          	movsxd rdx,DWORD PTR [rcx+0x3c]
   14000222d:	48 01 d1             	add    rcx,rdx
   140002230:	81 39 50 45 00 00    	cmp    DWORD PTR [rcx],0x4550
   140002236:	74 08                	je     140002240 <_ValidateImageBase+0x20>
   140002238:	c3                   	ret
   140002239:	0f 1f 80 00 00 00 00 	nop    DWORD PTR [rax+0x0]
   140002240:	31 c0                	xor    eax,eax
   140002242:	66 81 79 18 0b 02    	cmp    WORD PTR [rcx+0x18],0x20b
   140002248:	0f 94 c0             	sete   al
   14000224b:	c3                   	ret
   14000224c:	0f 1f 40 00          	nop    DWORD PTR [rax+0x0]

0000000140002250 <_FindPESection>:
   140002250:	48 63 41 3c          	movsxd rax,DWORD PTR [rcx+0x3c]
   140002254:	48 01 c1             	add    rcx,rax
   140002257:	0f b7 41 14          	movzx  eax,WORD PTR [rcx+0x14]
   14000225b:	44 0f b7 41 06       	movzx  r8d,WORD PTR [rcx+0x6]
   140002260:	48 8d 44 01 18       	lea    rax,[rcx+rax*1+0x18]
   140002265:	66 45 85 c0          	test   r8w,r8w
   140002269:	74 32                	je     14000229d <_FindPESection+0x4d>
   14000226b:	41 8d 48 ff          	lea    ecx,[r8-0x1]
   14000226f:	48 8d 0c 89          	lea    rcx,[rcx+rcx*4]
   140002273:	4c 8d 4c c8 28       	lea    r9,[rax+rcx*8+0x28]
   140002278:	0f 1f 84 00 00 00 00 	nop    DWORD PTR [rax+rax*1+0x0]
   14000227f:	00 
   140002280:	44 8b 40 0c          	mov    r8d,DWORD PTR [rax+0xc]
   140002284:	4c 89 c1             	mov    rcx,r8
   140002287:	4c 39 c2             	cmp    rdx,r8
   14000228a:	72 08                	jb     140002294 <_FindPESection+0x44>
   14000228c:	03 48 08             	add    ecx,DWORD PTR [rax+0x8]
   14000228f:	48 39 ca             	cmp    rdx,rcx
   140002292:	72 0b                	jb     14000229f <_FindPESection+0x4f>
   140002294:	48 83 c0 28          	add    rax,0x28
   140002298:	4c 39 c8             	cmp    rax,r9
   14000229b:	75 e3                	jne    140002280 <_FindPESection+0x30>
   14000229d:	31 c0                	xor    eax,eax
   14000229f:	c3                   	ret

00000001400022a0 <_FindPESectionByName>:
   1400022a0:	57                   	push   rdi
   1400022a1:	56                   	push   rsi
   1400022a2:	53                   	push   rbx
   1400022a3:	48 83 ec 20          	sub    rsp,0x20
   1400022a7:	48 89 ce             	mov    rsi,rcx
   1400022aa:	e8 59 59 00 00       	call   140007c08 <strlen>
   1400022af:	48 83 f8 08          	cmp    rax,0x8
   1400022b3:	77 7b                	ja     140002330 <_FindPESectionByName+0x90>
   1400022b5:	48 8b 15 84 74 00 00 	mov    rdx,QWORD PTR [rip+0x7484]        # 140009740 <.refptr.__image_base__>
   1400022bc:	31 db                	xor    ebx,ebx
   1400022be:	66 81 3a 4d 5a       	cmp    WORD PTR [rdx],0x5a4d
   1400022c3:	75 59                	jne    14000231e <_FindPESectionByName+0x7e>
   1400022c5:	48 63 42 3c          	movsxd rax,DWORD PTR [rdx+0x3c]
   1400022c9:	48 01 d0             	add    rax,rdx
   1400022cc:	81 38 50 45 00 00    	cmp    DWORD PTR [rax],0x4550
   1400022d2:	75 4a                	jne    14000231e <_FindPESectionByName+0x7e>
   1400022d4:	66 81 78 18 0b 02    	cmp    WORD PTR [rax+0x18],0x20b
   1400022da:	75 42                	jne    14000231e <_FindPESectionByName+0x7e>
   1400022dc:	0f b7 50 14          	movzx  edx,WORD PTR [rax+0x14]
   1400022e0:	48 8d 5c 10 18       	lea    rbx,[rax+rdx*1+0x18]
   1400022e5:	0f b7 50 06          	movzx  edx,WORD PTR [rax+0x6]
   1400022e9:	66 85 d2             	test   dx,dx
   1400022ec:	74 42                	je     140002330 <_FindPESectionByName+0x90>
   1400022ee:	8d 42 ff             	lea    eax,[rdx-0x1]
   1400022f1:	48 8d 04 80          	lea    rax,[rax+rax*4]
   1400022f5:	48 8d 7c c3 28       	lea    rdi,[rbx+rax*8+0x28]
   1400022fa:	eb 0d                	jmp    140002309 <_FindPESectionByName+0x69>
   1400022fc:	0f 1f 40 00          	nop    DWORD PTR [rax+0x0]
   140002300:	48 83 c3 28          	add    rbx,0x28
   140002304:	48 39 fb             	cmp    rbx,rdi
   140002307:	74 27                	je     140002330 <_FindPESectionByName+0x90>
   140002309:	41 b8 08 00 00 00    	mov    r8d,0x8
   14000230f:	48 89 f2             	mov    rdx,rsi
   140002312:	48 89 d9             	mov    rcx,rbx
   140002315:	e8 f6 58 00 00       	call   140007c10 <strncmp>
   14000231a:	85 c0                	test   eax,eax
   14000231c:	75 e2                	jne    140002300 <_FindPESectionByName+0x60>
   14000231e:	48 89 d8             	mov    rax,rbx
   140002321:	48 83 c4 20          	add    rsp,0x20
   140002325:	5b                   	pop    rbx
   140002326:	5e                   	pop    rsi
   140002327:	5f                   	pop    rdi
   140002328:	c3                   	ret
   140002329:	0f 1f 80 00 00 00 00 	nop    DWORD PTR [rax+0x0]
   140002330:	31 db                	xor    ebx,ebx
   140002332:	48 89 d8             	mov    rax,rbx
   140002335:	48 83 c4 20          	add    rsp,0x20
   140002339:	5b                   	pop    rbx
   14000233a:	5e                   	pop    rsi
   14000233b:	5f                   	pop    rdi
   14000233c:	c3                   	ret
   14000233d:	0f 1f 00             	nop    DWORD PTR [rax]

0000000140002340 <__mingw_GetSectionForAddress>:
   140002340:	48 8b 15 f9 73 00 00 	mov    rdx,QWORD PTR [rip+0x73f9]        # 140009740 <.refptr.__image_base__>
   140002347:	31 c0                	xor    eax,eax
   140002349:	66 81 3a 4d 5a       	cmp    WORD PTR [rdx],0x5a4d
   14000234e:	75 10                	jne    140002360 <__mingw_GetSectionForAddress+0x20>
   140002350:	4c 63 42 3c          	movsxd r8,DWORD PTR [rdx+0x3c]
   140002354:	49 01 d0             	add    r8,rdx
   140002357:	41 81 38 50 45 00 00 	cmp    DWORD PTR [r8],0x4550
   14000235e:	74 08                	je     140002368 <__mingw_GetSectionForAddress+0x28>
   140002360:	c3                   	ret
   140002361:	0f 1f 80 00 00 00 00 	nop    DWORD PTR [rax+0x0]
   140002368:	66 41 81 78 18 0b 02 	cmp    WORD PTR [r8+0x18],0x20b
   14000236f:	75 ef                	jne    140002360 <__mingw_GetSectionForAddress+0x20>
   140002371:	41 0f b7 40 14       	movzx  eax,WORD PTR [r8+0x14]
   140002376:	48 29 d1             	sub    rcx,rdx
   140002379:	49 8d 44 00 18       	lea    rax,[r8+rax*1+0x18]
   14000237e:	45 0f b7 40 06       	movzx  r8d,WORD PTR [r8+0x6]
   140002383:	66 45 85 c0          	test   r8w,r8w
   140002387:	74 34                	je     1400023bd <__mingw_GetSectionForAddress+0x7d>
   140002389:	41 8d 50 ff          	lea    edx,[r8-0x1]
   14000238d:	48 8d 14 92          	lea    rdx,[rdx+rdx*4]
   140002391:	4c 8d 4c d0 28       	lea    r9,[rax+rdx*8+0x28]
   140002396:	66 2e 0f 1f 84 00 00 	cs nop WORD PTR [rax+rax*1+0x0]
   14000239d:	00 00 00 
   1400023a0:	44 8b 40 0c          	mov    r8d,DWORD PTR [rax+0xc]
   1400023a4:	4c 89 c2             	mov    rdx,r8
   1400023a7:	4c 39 c1             	cmp    rcx,r8
   1400023aa:	72 08                	jb     1400023b4 <__mingw_GetSectionForAddress+0x74>
   1400023ac:	03 50 08             	add    edx,DWORD PTR [rax+0x8]
   1400023af:	48 39 d1             	cmp    rcx,rdx
   1400023b2:	72 ac                	jb     140002360 <__mingw_GetSectionForAddress+0x20>
   1400023b4:	48 83 c0 28          	add    rax,0x28
   1400023b8:	4c 39 c8             	cmp    rax,r9
   1400023bb:	75 e3                	jne    1400023a0 <__mingw_GetSectionForAddress+0x60>
   1400023bd:	31 c0                	xor    eax,eax
   1400023bf:	c3                   	ret

00000001400023c0 <__mingw_GetSectionCount>:
   1400023c0:	48 8b 05 79 73 00 00 	mov    rax,QWORD PTR [rip+0x7379]        # 140009740 <.refptr.__image_base__>
   1400023c7:	31 c9                	xor    ecx,ecx
   1400023c9:	66 81 38 4d 5a       	cmp    WORD PTR [rax],0x5a4d
   1400023ce:	75 0f                	jne    1400023df <__mingw_GetSectionCount+0x1f>
   1400023d0:	48 63 50 3c          	movsxd rdx,DWORD PTR [rax+0x3c]
   1400023d4:	48 01 d0             	add    rax,rdx
   1400023d7:	81 38 50 45 00 00    	cmp    DWORD PTR [rax],0x4550
   1400023dd:	74 09                	je     1400023e8 <__mingw_GetSectionCount+0x28>
   1400023df:	89 c8                	mov    eax,ecx
   1400023e1:	c3                   	ret
   1400023e2:	66 0f 1f 44 00 00    	nop    WORD PTR [rax+rax*1+0x0]
   1400023e8:	66 81 78 18 0b 02    	cmp    WORD PTR [rax+0x18],0x20b
   1400023ee:	75 ef                	jne    1400023df <__mingw_GetSectionCount+0x1f>
   1400023f0:	0f b7 48 06          	movzx  ecx,WORD PTR [rax+0x6]
   1400023f4:	89 c8                	mov    eax,ecx
   1400023f6:	c3                   	ret
   1400023f7:	66 0f 1f 84 00 00 00 	nop    WORD PTR [rax+rax*1+0x0]
   1400023fe:	00 00 

0000000140002400 <_FindPESectionExec>:
   140002400:	4c 8b 05 39 73 00 00 	mov    r8,QWORD PTR [rip+0x7339]        # 140009740 <.refptr.__image_base__>
   140002407:	31 c0                	xor    eax,eax
   140002409:	66 41 81 38 4d 5a    	cmp    WORD PTR [r8],0x5a4d
   14000240f:	75 0f                	jne    140002420 <_FindPESectionExec+0x20>
   140002411:	49 63 50 3c          	movsxd rdx,DWORD PTR [r8+0x3c]
   140002415:	4c 01 c2             	add    rdx,r8
   140002418:	81 3a 50 45 00 00    	cmp    DWORD PTR [rdx],0x4550
   14000241e:	74 08                	je     140002428 <_FindPESectionExec+0x28>
   140002420:	c3                   	ret
   140002421:	0f 1f 80 00 00 00 00 	nop    DWORD PTR [rax+0x0]
   140002428:	66 81 7a 18 0b 02    	cmp    WORD PTR [rdx+0x18],0x20b
   14000242e:	75 f0                	jne    140002420 <_FindPESectionExec+0x20>
   140002430:	0f b7 42 14          	movzx  eax,WORD PTR [rdx+0x14]
   140002434:	44 0f b7 42 06       	movzx  r8d,WORD PTR [rdx+0x6]
   140002439:	48 8d 44 02 18       	lea    rax,[rdx+rax*1+0x18]
   14000243e:	66 45 85 c0          	test   r8w,r8w
   140002442:	74 2c                	je     140002470 <_FindPESectionExec+0x70>
   140002444:	41 8d 50 ff          	lea    edx,[r8-0x1]
   140002448:	48 8d 14 92          	lea    rdx,[rdx+rdx*4]
   14000244c:	48 8d 54 d0 28       	lea    rdx,[rax+rdx*8+0x28]
   140002451:	0f 1f 80 00 00 00 00 	nop    DWORD PTR [rax+0x0]
   140002458:	f6 40 27 20          	test   BYTE PTR [rax+0x27],0x20
   14000245c:	74 09                	je     140002467 <_FindPESectionExec+0x67>
   14000245e:	48 85 c9             	test   rcx,rcx
   140002461:	74 bd                	je     140002420 <_FindPESectionExec+0x20>
   140002463:	48 83 e9 01          	sub    rcx,0x1
   140002467:	48 83 c0 28          	add    rax,0x28
   14000246b:	48 39 d0             	cmp    rax,rdx
   14000246e:	75 e8                	jne    140002458 <_FindPESectionExec+0x58>
   140002470:	31 c0                	xor    eax,eax
   140002472:	c3                   	ret
   140002473:	66 66 2e 0f 1f 84 00 	data16 cs nop WORD PTR [rax+rax*1+0x0]
   14000247a:	00 00 00 00 
   14000247e:	66 90                	xchg   ax,ax

0000000140002480 <_GetPEImageBase>:
   140002480:	48 8b 05 b9 72 00 00 	mov    rax,QWORD PTR [rip+0x72b9]        # 140009740 <.refptr.__image_base__>
   140002487:	31 d2                	xor    edx,edx
   140002489:	66 81 38 4d 5a       	cmp    WORD PTR [rax],0x5a4d
   14000248e:	75 0f                	jne    14000249f <_GetPEImageBase+0x1f>
   140002490:	48 63 48 3c          	movsxd rcx,DWORD PTR [rax+0x3c]
   140002494:	48 01 c1             	add    rcx,rax
   140002497:	81 39 50 45 00 00    	cmp    DWORD PTR [rcx],0x4550
   14000249d:	74 09                	je     1400024a8 <_GetPEImageBase+0x28>
   14000249f:	48 89 d0             	mov    rax,rdx
   1400024a2:	c3                   	ret
   1400024a3:	0f 1f 44 00 00       	nop    DWORD PTR [rax+rax*1+0x0]
   1400024a8:	66 81 79 18 0b 02    	cmp    WORD PTR [rcx+0x18],0x20b
   1400024ae:	48 0f 44 d0          	cmove  rdx,rax
   1400024b2:	48 89 d0             	mov    rax,rdx
   1400024b5:	c3                   	ret
   1400024b6:	66 2e 0f 1f 84 00 00 	cs nop WORD PTR [rax+rax*1+0x0]
   1400024bd:	00 00 00 

00000001400024c0 <_IsNonwritableInCurrentImage>:
   1400024c0:	48 8b 15 79 72 00 00 	mov    rdx,QWORD PTR [rip+0x7279]        # 140009740 <.refptr.__image_base__>
   1400024c7:	31 c0                	xor    eax,eax
   1400024c9:	66 81 3a 4d 5a       	cmp    WORD PTR [rdx],0x5a4d
   1400024ce:	75 10                	jne    1400024e0 <_IsNonwritableInCurrentImage+0x20>
   1400024d0:	4c 63 42 3c          	movsxd r8,DWORD PTR [rdx+0x3c]
   1400024d4:	49 01 d0             	add    r8,rdx
   1400024d7:	41 81 38 50 45 00 00 	cmp    DWORD PTR [r8],0x4550
   1400024de:	74 08                	je     1400024e8 <_IsNonwritableInCurrentImage+0x28>
   1400024e0:	c3                   	ret
   1400024e1:	0f 1f 80 00 00 00 00 	nop    DWORD PTR [rax+0x0]
   1400024e8:	66 41 81 78 18 0b 02 	cmp    WORD PTR [r8+0x18],0x20b
   1400024ef:	75 ef                	jne    1400024e0 <_IsNonwritableInCurrentImage+0x20>
   1400024f1:	48 29 d1             	sub    rcx,rdx
   1400024f4:	45 0f b7 48 06       	movzx  r9d,WORD PTR [r8+0x6]
   1400024f9:	41 0f b7 50 14       	movzx  edx,WORD PTR [r8+0x14]
   1400024fe:	49 8d 54 10 18       	lea    rdx,[r8+rdx*1+0x18]
   140002503:	66 45 85 c9          	test   r9w,r9w
   140002507:	74 d7                	je     1400024e0 <_IsNonwritableInCurrentImage+0x20>
   140002509:	41 8d 41 ff          	lea    eax,[r9-0x1]
   14000250d:	48 8d 04 80          	lea    rax,[rax+rax*4]
   140002511:	4c 8d 4c c2 28       	lea    r9,[rdx+rax*8+0x28]
   140002516:	66 2e 0f 1f 84 00 00 	cs nop WORD PTR [rax+rax*1+0x0]
   14000251d:	00 00 00 
   140002520:	44 8b 42 0c          	mov    r8d,DWORD PTR [rdx+0xc]
   140002524:	4c 89 c0             	mov    rax,r8
   140002527:	4c 39 c1             	cmp    rcx,r8
   14000252a:	72 08                	jb     140002534 <_IsNonwritableInCurrentImage+0x74>
   14000252c:	03 42 08             	add    eax,DWORD PTR [rdx+0x8]
   14000252f:	48 39 c1             	cmp    rcx,rax
   140002532:	72 0c                	jb     140002540 <_IsNonwritableInCurrentImage+0x80>
   140002534:	48 83 c2 28          	add    rdx,0x28
   140002538:	49 39 d1             	cmp    r9,rdx
   14000253b:	75 e3                	jne    140002520 <_IsNonwritableInCurrentImage+0x60>
   14000253d:	31 c0                	xor    eax,eax
   14000253f:	c3                   	ret
   140002540:	8b 42 24             	mov    eax,DWORD PTR [rdx+0x24]
   140002543:	f7 d0                	not    eax
   140002545:	c1 e8 1f             	shr    eax,0x1f
   140002548:	c3                   	ret
   140002549:	0f 1f 80 00 00 00 00 	nop    DWORD PTR [rax+0x0]

0000000140002550 <__mingw_enum_import_library_names>:
   140002550:	4c 8b 1d e9 71 00 00 	mov    r11,QWORD PTR [rip+0x71e9]        # 140009740 <.refptr.__image_base__>
   140002557:	45 31 c9             	xor    r9d,r9d
   14000255a:	66 41 81 3b 4d 5a    	cmp    WORD PTR [r11],0x5a4d
   140002560:	75 10                	jne    140002572 <__mingw_enum_import_library_names+0x22>
   140002562:	4d 63 43 3c          	movsxd r8,DWORD PTR [r11+0x3c]
   140002566:	4d 01 d8             	add    r8,r11
   140002569:	41 81 38 50 45 00 00 	cmp    DWORD PTR [r8],0x4550
   140002570:	74 0e                	je     140002580 <__mingw_enum_import_library_names+0x30>
   140002572:	4c 89 c8             	mov    rax,r9
   140002575:	c3                   	ret
   140002576:	66 2e 0f 1f 84 00 00 	cs nop WORD PTR [rax+rax*1+0x0]
   14000257d:	00 00 00 
   140002580:	66 41 81 78 18 0b 02 	cmp    WORD PTR [r8+0x18],0x20b
   140002587:	75 e9                	jne    140002572 <__mingw_enum_import_library_names+0x22>
   140002589:	41 8b 80 90 00 00 00 	mov    eax,DWORD PTR [r8+0x90]
   140002590:	85 c0                	test   eax,eax
   140002592:	74 de                	je     140002572 <__mingw_enum_import_library_names+0x22>
   140002594:	41 0f b7 50 14       	movzx  edx,WORD PTR [r8+0x14]
   140002599:	45 0f b7 50 06       	movzx  r10d,WORD PTR [r8+0x6]
   14000259e:	49 8d 54 10 18       	lea    rdx,[r8+rdx*1+0x18]
   1400025a3:	66 45 85 d2          	test   r10w,r10w
   1400025a7:	74 c9                	je     140002572 <__mingw_enum_import_library_names+0x22>
   1400025a9:	45 8d 42 ff          	lea    r8d,[r10-0x1]
   1400025ad:	4f 8d 04 80          	lea    r8,[r8+r8*4]
   1400025b1:	4e 8d 54 c2 28       	lea    r10,[rdx+r8*8+0x28]
   1400025b6:	66 2e 0f 1f 84 00 00 	cs nop WORD PTR [rax+rax*1+0x0]
   1400025bd:	00 00 00 
   1400025c0:	44 8b 4a 0c          	mov    r9d,DWORD PTR [rdx+0xc]
   1400025c4:	4d 89 c8             	mov    r8,r9
   1400025c7:	4c 39 c8             	cmp    rax,r9
   1400025ca:	72 09                	jb     1400025d5 <__mingw_enum_import_library_names+0x85>
   1400025cc:	44 03 42 08          	add    r8d,DWORD PTR [rdx+0x8]
   1400025d0:	4c 39 c0             	cmp    rax,r8
   1400025d3:	72 13                	jb     1400025e8 <__mingw_enum_import_library_names+0x98>
   1400025d5:	48 83 c2 28          	add    rdx,0x28
   1400025d9:	4c 39 d2             	cmp    rdx,r10
   1400025dc:	75 e2                	jne    1400025c0 <__mingw_enum_import_library_names+0x70>
   1400025de:	45 31 c9             	xor    r9d,r9d
   1400025e1:	4c 89 c8             	mov    rax,r9
   1400025e4:	c3                   	ret
   1400025e5:	0f 1f 00             	nop    DWORD PTR [rax]
   1400025e8:	4c 01 d8             	add    rax,r11
   1400025eb:	eb 0a                	jmp    1400025f7 <__mingw_enum_import_library_names+0xa7>
   1400025ed:	0f 1f 00             	nop    DWORD PTR [rax]
   1400025f0:	83 e9 01             	sub    ecx,0x1
   1400025f3:	48 83 c0 14          	add    rax,0x14
   1400025f7:	44 8b 40 04          	mov    r8d,DWORD PTR [rax+0x4]
   1400025fb:	45 85 c0             	test   r8d,r8d
   1400025fe:	75 07                	jne    140002607 <__mingw_enum_import_library_names+0xb7>
   140002600:	8b 50 0c             	mov    edx,DWORD PTR [rax+0xc]
   140002603:	85 d2                	test   edx,edx
   140002605:	74 d7                	je     1400025de <__mingw_enum_import_library_names+0x8e>
   140002607:	85 c9                	test   ecx,ecx
   140002609:	7f e5                	jg     1400025f0 <__mingw_enum_import_library_names+0xa0>
   14000260b:	44 8b 48 0c          	mov    r9d,DWORD PTR [rax+0xc]
   14000260f:	4d 01 d9             	add    r9,r11
   140002612:	4c 89 c8             	mov    rax,r9
   140002615:	c3                   	ret
   140002616:	90                   	nop
   140002617:	90                   	nop
   140002618:	90                   	nop
   140002619:	90                   	nop
   14000261a:	90                   	nop
   14000261b:	90                   	nop
   14000261c:	90                   	nop
   14000261d:	90                   	nop
   14000261e:	90                   	nop
   14000261f:	90                   	nop

0000000140002620 <___chkstk_ms>:
   140002620:	51                   	push   rcx
   140002621:	50                   	push   rax
   140002622:	48 3d 00 10 00 00    	cmp    rax,0x1000
   140002628:	48 8d 4c 24 18       	lea    rcx,[rsp+0x18]
   14000262d:	72 19                	jb     140002648 <___chkstk_ms+0x28>
   14000262f:	48 81 e9 00 10 00 00 	sub    rcx,0x1000
   140002636:	48 83 09 00          	or     QWORD PTR [rcx],0x0
   14000263a:	48 2d 00 10 00 00    	sub    rax,0x1000
   140002640:	48 3d 00 10 00 00    	cmp    rax,0x1000
   140002646:	77 e7                	ja     14000262f <___chkstk_ms+0xf>
   140002648:	48 29 c1             	sub    rcx,rax
   14000264b:	48 83 09 00          	or     QWORD PTR [rcx],0x0
   14000264f:	58                   	pop    rax
   140002650:	59                   	pop    rcx
   140002651:	c3                   	ret
   140002652:	90                   	nop
   140002653:	90                   	nop
   140002654:	90                   	nop
   140002655:	90                   	nop
   140002656:	90                   	nop
   140002657:	90                   	nop
   140002658:	90                   	nop
   140002659:	90                   	nop
   14000265a:	90                   	nop
   14000265b:	90                   	nop
   14000265c:	90                   	nop
   14000265d:	90                   	nop
   14000265e:	90                   	nop
   14000265f:	90                   	nop

0000000140002660 <__mingw_vfprintf>:
   140002660:	57                   	push   rdi
   140002661:	56                   	push   rsi
   140002662:	53                   	push   rbx
   140002663:	48 83 ec 30          	sub    rsp,0x30
   140002667:	4c 89 c7             	mov    rdi,r8
   14000266a:	48 89 cb             	mov    rbx,rcx
   14000266d:	48 89 d6             	mov    rsi,rdx
   140002670:	e8 9b 4e 00 00       	call   140007510 <_lock_file>
   140002675:	48 89 7c 24 20       	mov    QWORD PTR [rsp+0x20],rdi
   14000267a:	49 89 f1             	mov    r9,rsi
   14000267d:	45 31 c0             	xor    r8d,r8d
   140002680:	48 89 da             	mov    rdx,rbx
   140002683:	b9 00 60 00 00       	mov    ecx,0x6000
   140002688:	e8 23 1b 00 00       	call   1400041b0 <__mingw_pformat>
   14000268d:	48 89 d9             	mov    rcx,rbx
   140002690:	89 c6                	mov    esi,eax
   140002692:	e8 e9 4e 00 00       	call   140007580 <_unlock_file>
   140002697:	89 f0                	mov    eax,esi
   140002699:	48 83 c4 30          	add    rsp,0x30
   14000269d:	5b                   	pop    rbx
   14000269e:	5e                   	pop    rsi
   14000269f:	5f                   	pop    rdi
   1400026a0:	c3                   	ret
   1400026a1:	90                   	nop
   1400026a2:	90                   	nop
   1400026a3:	90                   	nop
   1400026a4:	90                   	nop
   1400026a5:	90                   	nop
   1400026a6:	90                   	nop
   1400026a7:	90                   	nop
   1400026a8:	90                   	nop
   1400026a9:	90                   	nop
   1400026aa:	90                   	nop
   1400026ab:	90                   	nop
   1400026ac:	90                   	nop
   1400026ad:	90                   	nop
   1400026ae:	90                   	nop
   1400026af:	90                   	nop

00000001400026b0 <__pformat_cvt>:
   1400026b0:	48 83 ec 68          	sub    rsp,0x68
   1400026b4:	48 8b 02             	mov    rax,QWORD PTR [rdx]
   1400026b7:	8b 52 08             	mov    edx,DWORD PTR [rdx+0x8]
   1400026ba:	41 89 d2             	mov    r10d,edx
   1400026bd:	41 89 cb             	mov    r11d,ecx
   1400026c0:	48 89 44 24 50       	mov    QWORD PTR [rsp+0x50],rax
   1400026c5:	48 89 d1             	mov    rcx,rdx
   1400026c8:	89 54 24 58          	mov    DWORD PTR [rsp+0x58],edx
   1400026cc:	66 41 81 e2 ff 7f    	and    r10w,0x7fff
   1400026d2:	75 74                	jne    140002748 <__pformat_cvt+0x98>
   1400026d4:	48 89 c2             	mov    rdx,rax
   1400026d7:	48 c1 ea 20          	shr    rdx,0x20
   1400026db:	09 d0                	or     eax,edx
   1400026dd:	0f 84 8d 00 00 00    	je     140002770 <__pformat_cvt+0xc0>
   1400026e3:	85 d2                	test   edx,edx
   1400026e5:	0f 89 95 00 00 00    	jns    140002780 <__pformat_cvt+0xd0>
   1400026eb:	41 8d 92 c2 bf ff ff 	lea    edx,[r10-0x403e]
   1400026f2:	b8 01 00 00 00       	mov    eax,0x1
   1400026f7:	0f bf d2             	movsx  edx,dx
   1400026fa:	89 44 24 44          	mov    DWORD PTR [rsp+0x44],eax
   1400026fe:	81 e1 00 80 00 00    	and    ecx,0x8000
   140002704:	48 8b 84 24 90 00 00 	mov    rax,QWORD PTR [rsp+0x90]
   14000270b:	00 
   14000270c:	89 08                	mov    DWORD PTR [rax],ecx
   14000270e:	48 8d 44 24 48       	lea    rax,[rsp+0x48]
   140002713:	48 8d 0d 46 59 00 00 	lea    rcx,[rip+0x5946]        # 140008060 <fpi.0>
   14000271a:	4c 89 4c 24 30       	mov    QWORD PTR [rsp+0x30],r9
   14000271f:	4c 8d 4c 24 44       	lea    r9,[rsp+0x44]
   140002724:	44 89 44 24 28       	mov    DWORD PTR [rsp+0x28],r8d
   140002729:	4c 8d 44 24 50       	lea    r8,[rsp+0x50]
   14000272e:	48 89 44 24 38       	mov    QWORD PTR [rsp+0x38],rax
   140002733:	44 89 5c 24 20       	mov    DWORD PTR [rsp+0x20],r11d
   140002738:	e8 b3 27 00 00       	call   140004ef0 <__gdtoa>
   14000273d:	48 83 c4 68          	add    rsp,0x68
   140002741:	c3                   	ret
   140002742:	66 0f 1f 44 00 00    	nop    WORD PTR [rax+rax*1+0x0]
   140002748:	66 41 81 fa ff 7f    	cmp    r10w,0x7fff
   14000274e:	75 9b                	jne    1400026eb <__pformat_cvt+0x3b>
   140002750:	48 89 c2             	mov    rdx,rax
   140002753:	48 c1 ea 20          	shr    rdx,0x20
   140002757:	81 e2 ff ff ff 7f    	and    edx,0x7fffffff
   14000275d:	09 c2                	or     edx,eax
   14000275f:	74 2f                	je     140002790 <__pformat_cvt+0xe0>
   140002761:	c7 44 24 44 04 00 00 	mov    DWORD PTR [rsp+0x44],0x4
   140002768:	00 
   140002769:	31 d2                	xor    edx,edx
   14000276b:	31 c9                	xor    ecx,ecx
   14000276d:	eb 95                	jmp    140002704 <__pformat_cvt+0x54>
   14000276f:	90                   	nop
   140002770:	31 c0                	xor    eax,eax
   140002772:	31 d2                	xor    edx,edx
   140002774:	eb 84                	jmp    1400026fa <__pformat_cvt+0x4a>
   140002776:	66 2e 0f 1f 84 00 00 	cs nop WORD PTR [rax+rax*1+0x0]
   14000277d:	00 00 00 
   140002780:	b8 02 00 00 00       	mov    eax,0x2
   140002785:	ba c3 bf ff ff       	mov    edx,0xffffbfc3
   14000278a:	e9 6b ff ff ff       	jmp    1400026fa <__pformat_cvt+0x4a>
   14000278f:	90                   	nop
   140002790:	b8 03 00 00 00       	mov    eax,0x3
   140002795:	31 d2                	xor    edx,edx
   140002797:	e9 5e ff ff ff       	jmp    1400026fa <__pformat_cvt+0x4a>
   14000279c:	0f 1f 40 00          	nop    DWORD PTR [rax+0x0]

00000001400027a0 <__pformat_putc>:
   1400027a0:	53                   	push   rbx
   1400027a1:	48 83 ec 20          	sub    rsp,0x20
   1400027a5:	48 89 d3             	mov    rbx,rdx
   1400027a8:	8b 52 08             	mov    edx,DWORD PTR [rdx+0x8]
   1400027ab:	f6 c6 40             	test   dh,0x40
   1400027ae:	75 08                	jne    1400027b8 <__pformat_putc+0x18>
   1400027b0:	8b 43 24             	mov    eax,DWORD PTR [rbx+0x24]
   1400027b3:	39 43 28             	cmp    DWORD PTR [rbx+0x28],eax
   1400027b6:	7e 12                	jle    1400027ca <__pformat_putc+0x2a>
   1400027b8:	48 8b 03             	mov    rax,QWORD PTR [rbx]
   1400027bb:	80 e6 20             	and    dh,0x20
   1400027be:	75 20                	jne    1400027e0 <__pformat_putc+0x40>
   1400027c0:	48 63 53 24          	movsxd rdx,DWORD PTR [rbx+0x24]
   1400027c4:	88 0c 10             	mov    BYTE PTR [rax+rdx*1],cl
   1400027c7:	8b 43 24             	mov    eax,DWORD PTR [rbx+0x24]
   1400027ca:	83 c0 01             	add    eax,0x1
   1400027cd:	89 43 24             	mov    DWORD PTR [rbx+0x24],eax
   1400027d0:	48 83 c4 20          	add    rsp,0x20
   1400027d4:	5b                   	pop    rbx
   1400027d5:	c3                   	ret
   1400027d6:	66 2e 0f 1f 84 00 00 	cs nop WORD PTR [rax+rax*1+0x0]
   1400027dd:	00 00 00 
   1400027e0:	48 89 c2             	mov    rdx,rax
   1400027e3:	e8 d8 53 00 00       	call   140007bc0 <fputc>
   1400027e8:	8b 43 24             	mov    eax,DWORD PTR [rbx+0x24]
   1400027eb:	83 c0 01             	add    eax,0x1
   1400027ee:	89 43 24             	mov    DWORD PTR [rbx+0x24],eax
   1400027f1:	48 83 c4 20          	add    rsp,0x20
   1400027f5:	5b                   	pop    rbx
   1400027f6:	c3                   	ret
   1400027f7:	66 0f 1f 84 00 00 00 	nop    WORD PTR [rax+rax*1+0x0]
   1400027fe:	00 00 

0000000140002800 <__pformat_wputchars>:
   140002800:	41 57                	push   r15
   140002802:	41 56                	push   r14
   140002804:	41 55                	push   r13
   140002806:	41 54                	push   r12
   140002808:	55                   	push   rbp
   140002809:	57                   	push   rdi
   14000280a:	56                   	push   rsi
   14000280b:	53                   	push   rbx
   14000280c:	48 83 ec 48          	sub    rsp,0x48
   140002810:	4c 8d 6c 24 28       	lea    r13,[rsp+0x28]
   140002815:	48 8d 7c 24 30       	lea    rdi,[rsp+0x30]
   14000281a:	89 d6                	mov    esi,edx
   14000281c:	4c 89 c3             	mov    rbx,r8
   14000281f:	31 d2                	xor    edx,edx
   140002821:	48 89 cd             	mov    rbp,rcx
   140002824:	4d 89 e8             	mov    r8,r13
   140002827:	48 89 f9             	mov    rcx,rdi
   14000282a:	e8 81 4e 00 00       	call   1400076b0 <wcrtomb>
   14000282f:	8b 43 10             	mov    eax,DWORD PTR [rbx+0x10]
   140002832:	39 c6                	cmp    esi,eax
   140002834:	89 c2                	mov    edx,eax
   140002836:	0f 4e d6             	cmovle edx,esi
   140002839:	85 c0                	test   eax,eax
   14000283b:	8b 43 0c             	mov    eax,DWORD PTR [rbx+0xc]
   14000283e:	0f 49 f2             	cmovns esi,edx
   140002841:	39 f0                	cmp    eax,esi
   140002843:	0f 8f e2 00 00 00    	jg     14000292b <__pformat_wputchars+0x12b>
   140002849:	c7 43 0c ff ff ff ff 	mov    DWORD PTR [rbx+0xc],0xffffffff
   140002850:	44 8d 66 ff          	lea    r12d,[rsi-0x1]
   140002854:	85 f6                	test   esi,esi
   140002856:	0f 8e 29 01 00 00    	jle    140002985 <__pformat_wputchars+0x185>
   14000285c:	31 f6                	xor    esi,esi
   14000285e:	41 83 c4 01          	add    r12d,0x1
   140002862:	66 0f 1f 44 00 00    	nop    WORD PTR [rax+rax*1+0x0]
   140002868:	0f b7 54 75 00       	movzx  edx,WORD PTR [rbp+rsi*2+0x0]
   14000286d:	4d 89 e8             	mov    r8,r13
   140002870:	48 89 f9             	mov    rcx,rdi
   140002873:	e8 38 4e 00 00       	call   1400076b0 <wcrtomb>
   140002878:	85 c0                	test   eax,eax
   14000287a:	0f 8e 8d 00 00 00    	jle    14000290d <__pformat_wputchars+0x10d>
   140002880:	83 e8 01             	sub    eax,0x1
   140002883:	49 89 fe             	mov    r14,rdi
   140002886:	4c 8d 7c 07 01       	lea    r15,[rdi+rax*1+0x1]
   14000288b:	eb 18                	jmp    1400028a5 <__pformat_wputchars+0xa5>
   14000288d:	0f 1f 00             	nop    DWORD PTR [rax]
   140002890:	48 63 53 24          	movsxd rdx,DWORD PTR [rbx+0x24]
   140002894:	88 0c 10             	mov    BYTE PTR [rax+rdx*1],cl
   140002897:	8b 43 24             	mov    eax,DWORD PTR [rbx+0x24]
   14000289a:	83 c0 01             	add    eax,0x1
   14000289d:	89 43 24             	mov    DWORD PTR [rbx+0x24],eax
   1400028a0:	4d 39 fe             	cmp    r14,r15
   1400028a3:	74 37                	je     1400028dc <__pformat_wputchars+0xdc>
   1400028a5:	8b 53 08             	mov    edx,DWORD PTR [rbx+0x8]
   1400028a8:	49 83 c6 01          	add    r14,0x1
   1400028ac:	f6 c6 40             	test   dh,0x40
   1400028af:	75 08                	jne    1400028b9 <__pformat_wputchars+0xb9>
   1400028b1:	8b 43 24             	mov    eax,DWORD PTR [rbx+0x24]
   1400028b4:	39 43 28             	cmp    DWORD PTR [rbx+0x28],eax
   1400028b7:	7e e1                	jle    14000289a <__pformat_wputchars+0x9a>
   1400028b9:	41 0f be 4e ff       	movsx  ecx,BYTE PTR [r14-0x1]
   1400028be:	48 8b 03             	mov    rax,QWORD PTR [rbx]
   1400028c1:	80 e6 20             	and    dh,0x20
   1400028c4:	74 ca                	je     140002890 <__pformat_wputchars+0x90>
   1400028c6:	48 89 c2             	mov    rdx,rax
   1400028c9:	e8 f2 52 00 00       	call   140007bc0 <fputc>
   1400028ce:	8b 43 24             	mov    eax,DWORD PTR [rbx+0x24]
   1400028d1:	83 c0 01             	add    eax,0x1
   1400028d4:	89 43 24             	mov    DWORD PTR [rbx+0x24],eax
   1400028d7:	4d 39 fe             	cmp    r14,r15
   1400028da:	75 c9                	jne    1400028a5 <__pformat_wputchars+0xa5>
   1400028dc:	48 83 c6 01          	add    rsi,0x1
   1400028e0:	44 89 e0             	mov    eax,r12d
   1400028e3:	29 f0                	sub    eax,esi
   1400028e5:	85 c0                	test   eax,eax
   1400028e7:	0f 8f 7b ff ff ff    	jg     140002868 <__pformat_wputchars+0x68>
   1400028ed:	8b 43 0c             	mov    eax,DWORD PTR [rbx+0xc]
   1400028f0:	8d 50 ff             	lea    edx,[rax-0x1]
   1400028f3:	89 53 0c             	mov    DWORD PTR [rbx+0xc],edx
   1400028f6:	85 c0                	test   eax,eax
   1400028f8:	7e 20                	jle    14000291a <__pformat_wputchars+0x11a>
   1400028fa:	66 0f 1f 44 00 00    	nop    WORD PTR [rax+rax*1+0x0]
   140002900:	48 89 da             	mov    rdx,rbx
   140002903:	b9 20 00 00 00       	mov    ecx,0x20
   140002908:	e8 93 fe ff ff       	call   1400027a0 <__pformat_putc>
   14000290d:	8b 43 0c             	mov    eax,DWORD PTR [rbx+0xc]
   140002910:	8d 50 ff             	lea    edx,[rax-0x1]
   140002913:	89 53 0c             	mov    DWORD PTR [rbx+0xc],edx
   140002916:	85 c0                	test   eax,eax
   140002918:	7f e6                	jg     140002900 <__pformat_wputchars+0x100>
   14000291a:	48 83 c4 48          	add    rsp,0x48
   14000291e:	5b                   	pop    rbx
   14000291f:	5e                   	pop    rsi
   140002920:	5f                   	pop    rdi
   140002921:	5d                   	pop    rbp
   140002922:	41 5c                	pop    r12
   140002924:	41 5d                	pop    r13
   140002926:	41 5e                	pop    r14
   140002928:	41 5f                	pop    r15
   14000292a:	c3                   	ret
   14000292b:	29 f0                	sub    eax,esi
   14000292d:	89 43 0c             	mov    DWORD PTR [rbx+0xc],eax
   140002930:	f6 43 09 04          	test   BYTE PTR [rbx+0x9],0x4
   140002934:	75 3a                	jne    140002970 <__pformat_wputchars+0x170>
   140002936:	83 e8 01             	sub    eax,0x1
   140002939:	89 43 0c             	mov    DWORD PTR [rbx+0xc],eax
   14000293c:	0f 1f 40 00          	nop    DWORD PTR [rax+0x0]
   140002940:	48 89 da             	mov    rdx,rbx
   140002943:	b9 20 00 00 00       	mov    ecx,0x20
   140002948:	e8 53 fe ff ff       	call   1400027a0 <__pformat_putc>
   14000294d:	8b 43 0c             	mov    eax,DWORD PTR [rbx+0xc]
   140002950:	8d 50 ff             	lea    edx,[rax-0x1]
   140002953:	89 53 0c             	mov    DWORD PTR [rbx+0xc],edx
   140002956:	85 c0                	test   eax,eax
   140002958:	75 e6                	jne    140002940 <__pformat_wputchars+0x140>
   14000295a:	44 8d 66 ff          	lea    r12d,[rsi-0x1]
   14000295e:	85 f6                	test   esi,esi
   140002960:	0f 8f f6 fe ff ff    	jg     14000285c <__pformat_wputchars+0x5c>
   140002966:	eb a5                	jmp    14000290d <__pformat_wputchars+0x10d>
   140002968:	0f 1f 84 00 00 00 00 	nop    DWORD PTR [rax+rax*1+0x0]
   14000296f:	00 
   140002970:	44 8d 66 ff          	lea    r12d,[rsi-0x1]
   140002974:	85 f6                	test   esi,esi
   140002976:	0f 8f e0 fe ff ff    	jg     14000285c <__pformat_wputchars+0x5c>
   14000297c:	83 6b 0c 01          	sub    DWORD PTR [rbx+0xc],0x1
   140002980:	e9 7b ff ff ff       	jmp    140002900 <__pformat_wputchars+0x100>
   140002985:	c7 43 0c fe ff ff ff 	mov    DWORD PTR [rbx+0xc],0xfffffffe
   14000298c:	eb 8c                	jmp    14000291a <__pformat_wputchars+0x11a>
   14000298e:	66 90                	xchg   ax,ax

0000000140002990 <__pformat_putchars>:
   140002990:	57                   	push   rdi
   140002991:	56                   	push   rsi
   140002992:	53                   	push   rbx
   140002993:	48 83 ec 20          	sub    rsp,0x20
   140002997:	41 8b 40 10          	mov    eax,DWORD PTR [r8+0x10]
   14000299b:	89 d7                	mov    edi,edx
   14000299d:	39 c2                	cmp    edx,eax
   14000299f:	89 c2                	mov    edx,eax
   1400029a1:	48 89 ce             	mov    rsi,rcx
   1400029a4:	0f 4e d7             	cmovle edx,edi
   1400029a7:	85 c0                	test   eax,eax
   1400029a9:	41 8b 40 0c          	mov    eax,DWORD PTR [r8+0xc]
   1400029ad:	4c 89 c3             	mov    rbx,r8
   1400029b0:	0f 49 fa             	cmovns edi,edx
   1400029b3:	39 f8                	cmp    eax,edi
   1400029b5:	0f 8f bd 00 00 00    	jg     140002a78 <__pformat_putchars+0xe8>
   1400029bb:	41 c7 40 0c ff ff ff 	mov    DWORD PTR [r8+0xc],0xffffffff
   1400029c2:	ff 
   1400029c3:	8d 57 ff             	lea    edx,[rdi-0x1]
   1400029c6:	85 ff                	test   edi,edi
   1400029c8:	0f 84 97 00 00 00    	je     140002a65 <__pformat_putchars+0xd5>
   1400029ce:	8b 43 08             	mov    eax,DWORD PTR [rbx+0x8]
   1400029d1:	8d 7a 01             	lea    edi,[rdx+0x1]
   1400029d4:	48 01 f7             	add    rdi,rsi
   1400029d7:	eb 1f                	jmp    1400029f8 <__pformat_putchars+0x68>
   1400029d9:	0f 1f 80 00 00 00 00 	nop    DWORD PTR [rax+0x0]
   1400029e0:	48 63 43 24          	movsxd rax,DWORD PTR [rbx+0x24]
   1400029e4:	88 0c 02             	mov    BYTE PTR [rdx+rax*1],cl
   1400029e7:	8b 53 24             	mov    edx,DWORD PTR [rbx+0x24]
   1400029ea:	83 c2 01             	add    edx,0x1
   1400029ed:	89 53 24             	mov    DWORD PTR [rbx+0x24],edx
   1400029f0:	48 39 fe             	cmp    rsi,rdi
   1400029f3:	74 3c                	je     140002a31 <__pformat_putchars+0xa1>
   1400029f5:	8b 43 08             	mov    eax,DWORD PTR [rbx+0x8]
   1400029f8:	48 83 c6 01          	add    rsi,0x1
   1400029fc:	f6 c4 40             	test   ah,0x40
   1400029ff:	75 08                	jne    140002a09 <__pformat_putchars+0x79>
   140002a01:	8b 53 24             	mov    edx,DWORD PTR [rbx+0x24]
   140002a04:	39 53 28             	cmp    DWORD PTR [rbx+0x28],edx
   140002a07:	7e e1                	jle    1400029ea <__pformat_putchars+0x5a>
   140002a09:	0f be 4e ff          	movsx  ecx,BYTE PTR [rsi-0x1]
   140002a0d:	48 8b 13             	mov    rdx,QWORD PTR [rbx]
   140002a10:	f6 c4 20             	test   ah,0x20
   140002a13:	74 cb                	je     1400029e0 <__pformat_putchars+0x50>
   140002a15:	e8 a6 51 00 00       	call   140007bc0 <fputc>
   140002a1a:	8b 53 24             	mov    edx,DWORD PTR [rbx+0x24]
   140002a1d:	eb cb                	jmp    1400029ea <__pformat_putchars+0x5a>
   140002a1f:	90                   	nop
   140002a20:	48 63 43 24          	movsxd rax,DWORD PTR [rbx+0x24]
   140002a24:	c6 04 02 20          	mov    BYTE PTR [rdx+rax*1],0x20
   140002a28:	8b 53 24             	mov    edx,DWORD PTR [rbx+0x24]
   140002a2b:	83 c2 01             	add    edx,0x1
   140002a2e:	89 53 24             	mov    DWORD PTR [rbx+0x24],edx
   140002a31:	8b 43 0c             	mov    eax,DWORD PTR [rbx+0xc]
   140002a34:	8d 50 ff             	lea    edx,[rax-0x1]
   140002a37:	89 53 0c             	mov    DWORD PTR [rbx+0xc],edx
   140002a3a:	85 c0                	test   eax,eax
   140002a3c:	7e 2e                	jle    140002a6c <__pformat_putchars+0xdc>
   140002a3e:	8b 43 08             	mov    eax,DWORD PTR [rbx+0x8]
   140002a41:	f6 c4 40             	test   ah,0x40
   140002a44:	75 08                	jne    140002a4e <__pformat_putchars+0xbe>
   140002a46:	8b 53 24             	mov    edx,DWORD PTR [rbx+0x24]
   140002a49:	39 53 28             	cmp    DWORD PTR [rbx+0x28],edx
   140002a4c:	7e dd                	jle    140002a2b <__pformat_putchars+0x9b>
   140002a4e:	48 8b 13             	mov    rdx,QWORD PTR [rbx]
   140002a51:	f6 c4 20             	test   ah,0x20
   140002a54:	74 ca                	je     140002a20 <__pformat_putchars+0x90>
   140002a56:	b9 20 00 00 00       	mov    ecx,0x20
   140002a5b:	e8 60 51 00 00       	call   140007bc0 <fputc>
   140002a60:	8b 53 24             	mov    edx,DWORD PTR [rbx+0x24]
   140002a63:	eb c6                	jmp    140002a2b <__pformat_putchars+0x9b>
   140002a65:	c7 43 0c fe ff ff ff 	mov    DWORD PTR [rbx+0xc],0xfffffffe
   140002a6c:	48 83 c4 20          	add    rsp,0x20
   140002a70:	5b                   	pop    rbx
   140002a71:	5e                   	pop    rsi
   140002a72:	5f                   	pop    rdi
   140002a73:	c3                   	ret
   140002a74:	0f 1f 40 00          	nop    DWORD PTR [rax+0x0]
   140002a78:	29 f8                	sub    eax,edi
   140002a7a:	41 89 40 0c          	mov    DWORD PTR [r8+0xc],eax
   140002a7e:	89 c2                	mov    edx,eax
   140002a80:	41 8b 40 08          	mov    eax,DWORD PTR [r8+0x8]
   140002a84:	f6 c4 04             	test   ah,0x4
   140002a87:	75 37                	jne    140002ac0 <__pformat_putchars+0x130>
   140002a89:	8d 42 ff             	lea    eax,[rdx-0x1]
   140002a8c:	41 89 40 0c          	mov    DWORD PTR [r8+0xc],eax
   140002a90:	48 89 da             	mov    rdx,rbx
   140002a93:	b9 20 00 00 00       	mov    ecx,0x20
   140002a98:	e8 03 fd ff ff       	call   1400027a0 <__pformat_putc>
   140002a9d:	8b 43 0c             	mov    eax,DWORD PTR [rbx+0xc]
   140002aa0:	8d 50 ff             	lea    edx,[rax-0x1]
   140002aa3:	89 53 0c             	mov    DWORD PTR [rbx+0xc],edx
   140002aa6:	85 c0                	test   eax,eax
   140002aa8:	75 e6                	jne    140002a90 <__pformat_putchars+0x100>
   140002aaa:	8d 57 ff             	lea    edx,[rdi-0x1]
   140002aad:	85 ff                	test   edi,edi
   140002aaf:	0f 85 19 ff ff ff    	jne    1400029ce <__pformat_putchars+0x3e>
   140002ab5:	e9 77 ff ff ff       	jmp    140002a31 <__pformat_putchars+0xa1>
   140002aba:	66 0f 1f 44 00 00    	nop    WORD PTR [rax+rax*1+0x0]
   140002ac0:	8d 57 ff             	lea    edx,[rdi-0x1]
   140002ac3:	85 ff                	test   edi,edi
   140002ac5:	0f 85 06 ff ff ff    	jne    1400029d1 <__pformat_putchars+0x41>
   140002acb:	83 6b 0c 01          	sub    DWORD PTR [rbx+0xc],0x1
   140002acf:	e9 6d ff ff ff       	jmp    140002a41 <__pformat_putchars+0xb1>
   140002ad4:	66 66 2e 0f 1f 84 00 	data16 cs nop WORD PTR [rax+rax*1+0x0]
   140002adb:	00 00 00 00 
   140002adf:	90                   	nop

0000000140002ae0 <__pformat_puts>:
   140002ae0:	56                   	push   rsi
   140002ae1:	53                   	push   rbx
   140002ae2:	48 83 ec 28          	sub    rsp,0x28
   140002ae6:	48 8d 05 63 68 00 00 	lea    rax,[rip+0x6863]        # 140009350 <.rdata>
   140002aed:	48 89 cb             	mov    rbx,rcx
   140002af0:	48 85 c9             	test   rcx,rcx
   140002af3:	48 89 d6             	mov    rsi,rdx
   140002af6:	48 63 52 10          	movsxd rdx,DWORD PTR [rdx+0x10]
   140002afa:	48 0f 44 d8          	cmove  rbx,rax
   140002afe:	48 89 d9             	mov    rcx,rbx
   140002b01:	85 d2                	test   edx,edx
   140002b03:	78 1b                	js     140002b20 <__pformat_puts+0x40>
   140002b05:	e8 76 49 00 00       	call   140007480 <strnlen>
   140002b0a:	49 89 f0             	mov    r8,rsi
   140002b0d:	89 c2                	mov    edx,eax
   140002b0f:	48 89 d9             	mov    rcx,rbx
   140002b12:	48 83 c4 28          	add    rsp,0x28
   140002b16:	5b                   	pop    rbx
   140002b17:	5e                   	pop    rsi
   140002b18:	e9 73 fe ff ff       	jmp    140002990 <__pformat_putchars>
   140002b1d:	0f 1f 00             	nop    DWORD PTR [rax]
   140002b20:	e8 e3 50 00 00       	call   140007c08 <strlen>
   140002b25:	eb e3                	jmp    140002b0a <__pformat_puts+0x2a>
   140002b27:	66 0f 1f 84 00 00 00 	nop    WORD PTR [rax+rax*1+0x0]
   140002b2e:	00 00 

0000000140002b30 <__pformat_emit_inf_or_nan>:
   140002b30:	48 83 ec 38          	sub    rsp,0x38
   140002b34:	45 8b 50 08          	mov    r10d,DWORD PTR [r8+0x8]
   140002b38:	41 c7 40 10 ff ff ff 	mov    DWORD PTR [r8+0x10],0xffffffff
   140002b3f:	ff 
   140002b40:	85 c9                	test   ecx,ecx
   140002b42:	75 5c                	jne    140002ba0 <__pformat_emit_inf_or_nan+0x70>
   140002b44:	b8 2b 00 00 00       	mov    eax,0x2b
   140002b49:	41 f7 c2 00 01 00 00 	test   r10d,0x100
   140002b50:	75 53                	jne    140002ba5 <__pformat_emit_inf_or_nan+0x75>
   140002b52:	41 f6 c2 40          	test   r10b,0x40
   140002b56:	74 60                	je     140002bb8 <__pformat_emit_inf_or_nan+0x88>
   140002b58:	b8 20 00 00 00       	mov    eax,0x20
   140002b5d:	4c 8d 4c 24 2d       	lea    r9,[rsp+0x2d]
   140002b62:	4c 8d 5c 24 2c       	lea    r11,[rsp+0x2c]
   140002b67:	88 44 24 2c          	mov    BYTE PTR [rsp+0x2c],al
   140002b6b:	41 83 e2 20          	and    r10d,0x20
   140002b6f:	31 c9                	xor    ecx,ecx
   140002b71:	0f b6 04 0a          	movzx  eax,BYTE PTR [rdx+rcx*1]
   140002b75:	83 e0 df             	and    eax,0xffffffdf
   140002b78:	44 09 d0             	or     eax,r10d
   140002b7b:	41 88 04 09          	mov    BYTE PTR [r9+rcx*1],al
   140002b7f:	48 83 c1 01          	add    rcx,0x1
   140002b83:	48 83 f9 03          	cmp    rcx,0x3
   140002b87:	75 e8                	jne    140002b71 <__pformat_emit_inf_or_nan+0x41>
   140002b89:	49 8d 51 03          	lea    rdx,[r9+0x3]
   140002b8d:	4c 89 d9             	mov    rcx,r11
   140002b90:	44 29 da             	sub    edx,r11d
   140002b93:	e8 f8 fd ff ff       	call   140002990 <__pformat_putchars>
   140002b98:	90                   	nop
   140002b99:	48 83 c4 38          	add    rsp,0x38
   140002b9d:	c3                   	ret
   140002b9e:	66 90                	xchg   ax,ax
   140002ba0:	b8 2d 00 00 00       	mov    eax,0x2d
   140002ba5:	88 44 24 2c          	mov    BYTE PTR [rsp+0x2c],al
   140002ba9:	4c 8d 4c 24 2d       	lea    r9,[rsp+0x2d]
   140002bae:	4c 8d 5c 24 2c       	lea    r11,[rsp+0x2c]
   140002bb3:	eb b6                	jmp    140002b6b <__pformat_emit_inf_or_nan+0x3b>
   140002bb5:	0f 1f 00             	nop    DWORD PTR [rax]
   140002bb8:	4c 8d 5c 24 2c       	lea    r11,[rsp+0x2c]
   140002bbd:	4d 89 d9             	mov    r9,r11
   140002bc0:	eb a9                	jmp    140002b6b <__pformat_emit_inf_or_nan+0x3b>
   140002bc2:	66 66 2e 0f 1f 84 00 	data16 cs nop WORD PTR [rax+rax*1+0x0]
   140002bc9:	00 00 00 00 
   140002bcd:	0f 1f 00             	nop    DWORD PTR [rax]

0000000140002bd0 <__pformat_xint.isra.0>:
   140002bd0:	55                   	push   rbp
   140002bd1:	41 57                	push   r15
   140002bd3:	41 56                	push   r14
   140002bd5:	41 55                	push   r13
   140002bd7:	41 54                	push   r12
   140002bd9:	57                   	push   rdi
   140002bda:	56                   	push   rsi
   140002bdb:	53                   	push   rbx
   140002bdc:	48 83 ec 28          	sub    rsp,0x28
   140002be0:	48 8d 6c 24 20       	lea    rbp,[rsp+0x20]
   140002be5:	41 89 ce             	mov    r14d,ecx
   140002be8:	4c 89 c3             	mov    rbx,r8
   140002beb:	83 f9 6f             	cmp    ecx,0x6f
   140002bee:	0f 84 fc 02 00 00    	je     140002ef0 <__pformat_xint.isra.0+0x320>
   140002bf4:	45 8b 78 10          	mov    r15d,DWORD PTR [r8+0x10]
   140002bf8:	31 c0                	xor    eax,eax
   140002bfa:	41 8b 78 08          	mov    edi,DWORD PTR [r8+0x8]
   140002bfe:	45 85 ff             	test   r15d,r15d
   140002c01:	41 0f 49 c7          	cmovns eax,r15d
   140002c05:	83 c0 12             	add    eax,0x12
   140002c08:	f7 c7 00 10 00 00    	test   edi,0x1000
   140002c0e:	0f 84 9c 00 00 00    	je     140002cb0 <__pformat_xint.isra.0+0xe0>
   140002c14:	b9 04 00 00 00       	mov    ecx,0x4
   140002c19:	66 83 7b 20 00       	cmp    WORD PTR [rbx+0x20],0x0
   140002c1e:	74 14                	je     140002c34 <__pformat_xint.isra.0+0x64>
   140002c20:	41 89 c0             	mov    r8d,eax
   140002c23:	41 b9 ab aa aa aa    	mov    r9d,0xaaaaaaab
   140002c29:	4d 0f af c1          	imul   r8,r9
   140002c2d:	49 c1 e8 21          	shr    r8,0x21
   140002c31:	44 01 c0             	add    eax,r8d
   140002c34:	44 8b 63 0c          	mov    r12d,DWORD PTR [rbx+0xc]
   140002c38:	41 39 c4             	cmp    r12d,eax
   140002c3b:	41 0f 4d c4          	cmovge eax,r12d
   140002c3f:	48 98                	cdqe
   140002c41:	48 83 c0 0f          	add    rax,0xf
   140002c45:	48 83 e0 f0          	and    rax,0xfffffffffffffff0
   140002c49:	e8 d2 f9 ff ff       	call   140002620 <___chkstk_ms>
   140002c4e:	45 31 c0             	xor    r8d,r8d
   140002c51:	48 29 c4             	sub    rsp,rax
   140002c54:	41 83 fe 6f          	cmp    r14d,0x6f
   140002c58:	4c 8d 6c 24 20       	lea    r13,[rsp+0x20]
   140002c5d:	41 0f 95 c0          	setne  r8b
   140002c61:	46 8d 04 c5 07 00 00 	lea    r8d,[r8*8+0x7]
   140002c68:	00 
   140002c69:	4c 89 ee             	mov    rsi,r13
   140002c6c:	48 85 d2             	test   rdx,rdx
   140002c6f:	75 74                	jne    140002ce5 <__pformat_xint.isra.0+0x115>
   140002c71:	0f 1f 80 00 00 00 00 	nop    DWORD PTR [rax+0x0]
   140002c78:	81 e7 ff f7 ff ff    	and    edi,0xfffff7ff
   140002c7e:	89 7b 08             	mov    DWORD PTR [rbx+0x8],edi
   140002c81:	45 85 ff             	test   r15d,r15d
   140002c84:	0f 8f a1 00 00 00    	jg     140002d2b <__pformat_xint.isra.0+0x15b>
   140002c8a:	41 83 fe 6f          	cmp    r14d,0x6f
   140002c8e:	0f 85 c2 00 00 00    	jne    140002d56 <__pformat_xint.isra.0+0x186>
   140002c94:	f6 43 09 08          	test   BYTE PTR [rbx+0x9],0x8
   140002c98:	0f 84 b8 00 00 00    	je     140002d56 <__pformat_xint.isra.0+0x186>
   140002c9e:	c6 06 30             	mov    BYTE PTR [rsi],0x30
   140002ca1:	48 83 c6 01          	add    rsi,0x1
   140002ca5:	e9 ac 00 00 00       	jmp    140002d56 <__pformat_xint.isra.0+0x186>
   140002caa:	66 0f 1f 44 00 00    	nop    WORD PTR [rax+rax*1+0x0]
   140002cb0:	44 8b 63 0c          	mov    r12d,DWORD PTR [rbx+0xc]
   140002cb4:	41 39 c4             	cmp    r12d,eax
   140002cb7:	41 0f 4d c4          	cmovge eax,r12d
   140002cbb:	48 98                	cdqe
   140002cbd:	48 83 c0 0f          	add    rax,0xf
   140002cc1:	48 83 e0 f0          	and    rax,0xfffffffffffffff0
   140002cc5:	e8 56 f9 ff ff       	call   140002620 <___chkstk_ms>
   140002cca:	b9 04 00 00 00       	mov    ecx,0x4
   140002ccf:	41 b8 0f 00 00 00    	mov    r8d,0xf
   140002cd5:	48 29 c4             	sub    rsp,rax
   140002cd8:	4c 8d 6c 24 20       	lea    r13,[rsp+0x20]
   140002cdd:	4c 89 ee             	mov    rsi,r13
   140002ce0:	48 85 d2             	test   rdx,rdx
   140002ce3:	74 93                	je     140002c78 <__pformat_xint.isra.0+0xa8>
   140002ce5:	45 89 f1             	mov    r9d,r14d
   140002ce8:	41 83 e1 20          	and    r9d,0x20
   140002cec:	0f 1f 40 00          	nop    DWORD PTR [rax+0x0]
   140002cf0:	44 89 c0             	mov    eax,r8d
   140002cf3:	48 83 c6 01          	add    rsi,0x1
   140002cf7:	21 d0                	and    eax,edx
   140002cf9:	44 8d 50 30          	lea    r10d,[rax+0x30]
   140002cfd:	83 c0 37             	add    eax,0x37
   140002d00:	44 09 c8             	or     eax,r9d
   140002d03:	45 89 d3             	mov    r11d,r10d
   140002d06:	41 80 fa 39          	cmp    r10b,0x39
   140002d0a:	41 0f 46 c3          	cmovbe eax,r11d
   140002d0e:	48 d3 ea             	shr    rdx,cl
   140002d11:	88 46 ff             	mov    BYTE PTR [rsi-0x1],al
   140002d14:	48 85 d2             	test   rdx,rdx
   140002d17:	75 d7                	jne    140002cf0 <__pformat_xint.isra.0+0x120>
   140002d19:	4c 39 ee             	cmp    rsi,r13
   140002d1c:	0f 84 56 ff ff ff    	je     140002c78 <__pformat_xint.isra.0+0xa8>
   140002d22:	45 85 ff             	test   r15d,r15d
   140002d25:	0f 8e 5f ff ff ff    	jle    140002c8a <__pformat_xint.isra.0+0xba>
   140002d2b:	48 89 f0             	mov    rax,rsi
   140002d2e:	45 89 f8             	mov    r8d,r15d
   140002d31:	4c 29 e8             	sub    rax,r13
   140002d34:	41 29 c0             	sub    r8d,eax
   140002d37:	45 85 c0             	test   r8d,r8d
   140002d3a:	0f 8e f0 01 00 00    	jle    140002f30 <__pformat_xint.isra.0+0x360>
   140002d40:	49 63 f8             	movsxd rdi,r8d
   140002d43:	48 89 f1             	mov    rcx,rsi
   140002d46:	ba 30 00 00 00       	mov    edx,0x30
   140002d4b:	49 89 f8             	mov    r8,rdi
   140002d4e:	48 01 fe             	add    rsi,rdi
   140002d51:	e8 9a 4e 00 00       	call   140007bf0 <memset>
   140002d56:	4c 39 ee             	cmp    rsi,r13
   140002d59:	75 09                	jne    140002d64 <__pformat_xint.isra.0+0x194>
   140002d5b:	45 85 ff             	test   r15d,r15d
   140002d5e:	0f 85 94 02 00 00    	jne    140002ff8 <__pformat_xint.isra.0+0x428>
   140002d64:	48 89 f0             	mov    rax,rsi
   140002d67:	4c 29 e8             	sub    rax,r13
   140002d6a:	44 39 e0             	cmp    eax,r12d
   140002d6d:	7c 59                	jl     140002dc8 <__pformat_xint.isra.0+0x1f8>
   140002d6f:	c7 43 0c ff ff ff ff 	mov    DWORD PTR [rbx+0xc],0xffffffff
   140002d76:	41 83 fe 6f          	cmp    r14d,0x6f
   140002d7a:	0f 84 90 02 00 00    	je     140003010 <__pformat_xint.isra.0+0x440>
   140002d80:	f6 43 09 08          	test   BYTE PTR [rbx+0x9],0x8
   140002d84:	74 0b                	je     140002d91 <__pformat_xint.isra.0+0x1c1>
   140002d86:	44 88 36             	mov    BYTE PTR [rsi],r14b
   140002d89:	48 83 c6 02          	add    rsi,0x2
   140002d8d:	c6 46 ff 30          	mov    BYTE PTR [rsi-0x1],0x30
   140002d91:	41 bc ff ff ff ff    	mov    r12d,0xffffffff
   140002d97:	49 39 f5             	cmp    r13,rsi
   140002d9a:	73 14                	jae    140002db0 <__pformat_xint.isra.0+0x1e0>
   140002d9c:	8b 7b 08             	mov    edi,DWORD PTR [rbx+0x8]
   140002d9f:	45 8d 74 24 ff       	lea    r14d,[r12-0x1]
   140002da4:	e9 b7 00 00 00       	jmp    140002e60 <__pformat_xint.isra.0+0x290>
   140002da9:	0f 1f 80 00 00 00 00 	nop    DWORD PTR [rax+0x0]
   140002db0:	48 8d 65 08          	lea    rsp,[rbp+0x8]
   140002db4:	5b                   	pop    rbx
   140002db5:	5e                   	pop    rsi
   140002db6:	5f                   	pop    rdi
   140002db7:	41 5c                	pop    r12
   140002db9:	41 5d                	pop    r13
   140002dbb:	41 5e                	pop    r14
   140002dbd:	41 5f                	pop    r15
   140002dbf:	5d                   	pop    rbp
   140002dc0:	c3                   	ret
   140002dc1:	0f 1f 80 00 00 00 00 	nop    DWORD PTR [rax+0x0]
   140002dc8:	41 29 c4             	sub    r12d,eax
   140002dcb:	8b 7b 08             	mov    edi,DWORD PTR [rbx+0x8]
   140002dce:	44 89 63 0c          	mov    DWORD PTR [rbx+0xc],r12d
   140002dd2:	41 83 fe 6f          	cmp    r14d,0x6f
   140002dd6:	74 28                	je     140002e00 <__pformat_xint.isra.0+0x230>
   140002dd8:	f7 c7 00 08 00 00    	test   edi,0x800
   140002dde:	74 20                	je     140002e00 <__pformat_xint.isra.0+0x230>
   140002de0:	41 83 ec 02          	sub    r12d,0x2
   140002de4:	45 85 e4             	test   r12d,r12d
   140002de7:	0f 8f 4c 02 00 00    	jg     140003039 <__pformat_xint.isra.0+0x469>
   140002ded:	44 88 36             	mov    BYTE PTR [rsi],r14b
   140002df0:	48 83 c6 02          	add    rsi,0x2
   140002df4:	c6 46 ff 30          	mov    BYTE PTR [rsi-0x1],0x30
   140002df8:	eb 9d                	jmp    140002d97 <__pformat_xint.isra.0+0x1c7>
   140002dfa:	66 0f 1f 44 00 00    	nop    WORD PTR [rax+rax*1+0x0]
   140002e00:	45 85 ff             	test   r15d,r15d
   140002e03:	0f 88 9f 01 00 00    	js     140002fa8 <__pformat_xint.isra.0+0x3d8>
   140002e09:	45 8d 74 24 ff       	lea    r14d,[r12-0x1]
   140002e0e:	f7 c7 00 04 00 00    	test   edi,0x400
   140002e14:	0f 85 06 01 00 00    	jne    140002f20 <__pformat_xint.isra.0+0x350>
   140002e1a:	45 89 f4             	mov    r12d,r14d
   140002e1d:	0f 1f 00             	nop    DWORD PTR [rax]
   140002e20:	48 89 da             	mov    rdx,rbx
   140002e23:	b9 20 00 00 00       	mov    ecx,0x20
   140002e28:	e8 73 f9 ff ff       	call   1400027a0 <__pformat_putc>
   140002e2d:	41 83 ec 01          	sub    r12d,0x1
   140002e31:	73 ed                	jae    140002e20 <__pformat_xint.isra.0+0x250>
   140002e33:	41 be fe ff ff ff    	mov    r14d,0xfffffffe
   140002e39:	49 39 f5             	cmp    r13,rsi
   140002e3c:	72 1f                	jb     140002e5d <__pformat_xint.isra.0+0x28d>
   140002e3e:	e9 6d ff ff ff       	jmp    140002db0 <__pformat_xint.isra.0+0x1e0>
   140002e43:	0f 1f 44 00 00       	nop    DWORD PTR [rax+rax*1+0x0]
   140002e48:	48 63 43 24          	movsxd rax,DWORD PTR [rbx+0x24]
   140002e4c:	88 0c 02             	mov    BYTE PTR [rdx+rax*1],cl
   140002e4f:	8b 43 24             	mov    eax,DWORD PTR [rbx+0x24]
   140002e52:	83 c0 01             	add    eax,0x1
   140002e55:	89 43 24             	mov    DWORD PTR [rbx+0x24],eax
   140002e58:	49 39 f5             	cmp    r13,rsi
   140002e5b:	73 38                	jae    140002e95 <__pformat_xint.isra.0+0x2c5>
   140002e5d:	8b 7b 08             	mov    edi,DWORD PTR [rbx+0x8]
   140002e60:	48 83 ee 01          	sub    rsi,0x1
   140002e64:	f7 c7 00 40 00 00    	test   edi,0x4000
   140002e6a:	75 08                	jne    140002e74 <__pformat_xint.isra.0+0x2a4>
   140002e6c:	8b 43 24             	mov    eax,DWORD PTR [rbx+0x24]
   140002e6f:	39 43 28             	cmp    DWORD PTR [rbx+0x28],eax
   140002e72:	7e de                	jle    140002e52 <__pformat_xint.isra.0+0x282>
   140002e74:	81 e7 00 20 00 00    	and    edi,0x2000
   140002e7a:	0f be 0e             	movsx  ecx,BYTE PTR [rsi]
   140002e7d:	48 8b 13             	mov    rdx,QWORD PTR [rbx]
   140002e80:	74 c6                	je     140002e48 <__pformat_xint.isra.0+0x278>
   140002e82:	e8 39 4d 00 00       	call   140007bc0 <fputc>
   140002e87:	8b 43 24             	mov    eax,DWORD PTR [rbx+0x24]
   140002e8a:	83 c0 01             	add    eax,0x1
   140002e8d:	89 43 24             	mov    DWORD PTR [rbx+0x24],eax
   140002e90:	49 39 f5             	cmp    r13,rsi
   140002e93:	72 c8                	jb     140002e5d <__pformat_xint.isra.0+0x28d>
   140002e95:	45 85 e4             	test   r12d,r12d
   140002e98:	7f 27                	jg     140002ec1 <__pformat_xint.isra.0+0x2f1>
   140002e9a:	e9 11 ff ff ff       	jmp    140002db0 <__pformat_xint.isra.0+0x1e0>
   140002e9f:	90                   	nop
   140002ea0:	48 63 43 24          	movsxd rax,DWORD PTR [rbx+0x24]
   140002ea4:	c6 04 02 20          	mov    BYTE PTR [rdx+rax*1],0x20
   140002ea8:	8b 43 24             	mov    eax,DWORD PTR [rbx+0x24]
   140002eab:	83 c0 01             	add    eax,0x1
   140002eae:	89 43 24             	mov    DWORD PTR [rbx+0x24],eax
   140002eb1:	41 8d 46 ff          	lea    eax,[r14-0x1]
   140002eb5:	45 85 f6             	test   r14d,r14d
   140002eb8:	0f 8e f2 fe ff ff    	jle    140002db0 <__pformat_xint.isra.0+0x1e0>
   140002ebe:	41 89 c6             	mov    r14d,eax
   140002ec1:	8b 7b 08             	mov    edi,DWORD PTR [rbx+0x8]
   140002ec4:	f7 c7 00 40 00 00    	test   edi,0x4000
   140002eca:	75 08                	jne    140002ed4 <__pformat_xint.isra.0+0x304>
   140002ecc:	8b 43 24             	mov    eax,DWORD PTR [rbx+0x24]
   140002ecf:	39 43 28             	cmp    DWORD PTR [rbx+0x28],eax
   140002ed2:	7e d7                	jle    140002eab <__pformat_xint.isra.0+0x2db>
   140002ed4:	81 e7 00 20 00 00    	and    edi,0x2000
   140002eda:	48 8b 13             	mov    rdx,QWORD PTR [rbx]
   140002edd:	74 c1                	je     140002ea0 <__pformat_xint.isra.0+0x2d0>
   140002edf:	b9 20 00 00 00       	mov    ecx,0x20
   140002ee4:	e8 d7 4c 00 00       	call   140007bc0 <fputc>
   140002ee9:	8b 43 24             	mov    eax,DWORD PTR [rbx+0x24]
   140002eec:	eb bd                	jmp    140002eab <__pformat_xint.isra.0+0x2db>
   140002eee:	66 90                	xchg   ax,ax
   140002ef0:	45 8b 78 10          	mov    r15d,DWORD PTR [r8+0x10]
   140002ef4:	31 c0                	xor    eax,eax
   140002ef6:	41 8b 78 08          	mov    edi,DWORD PTR [r8+0x8]
   140002efa:	45 85 ff             	test   r15d,r15d
   140002efd:	41 0f 49 c7          	cmovns eax,r15d
   140002f01:	83 c0 18             	add    eax,0x18
   140002f04:	f7 c7 00 10 00 00    	test   edi,0x1000
   140002f0a:	74 64                	je     140002f70 <__pformat_xint.isra.0+0x3a0>
   140002f0c:	b9 03 00 00 00       	mov    ecx,0x3
   140002f11:	e9 03 fd ff ff       	jmp    140002c19 <__pformat_xint.isra.0+0x49>
   140002f16:	66 2e 0f 1f 84 00 00 	cs nop WORD PTR [rax+rax*1+0x0]
   140002f1d:	00 00 00 
   140002f20:	49 39 f5             	cmp    r13,rsi
   140002f23:	0f 82 37 ff ff ff    	jb     140002e60 <__pformat_xint.isra.0+0x290>
   140002f29:	eb 99                	jmp    140002ec4 <__pformat_xint.isra.0+0x2f4>
   140002f2b:	0f 1f 44 00 00       	nop    DWORD PTR [rax+rax*1+0x0]
   140002f30:	41 83 fe 6f          	cmp    r14d,0x6f
   140002f34:	0f 84 5a fd ff ff    	je     140002c94 <__pformat_xint.isra.0+0xc4>
   140002f3a:	4c 39 ee             	cmp    rsi,r13
   140002f3d:	0f 84 b5 00 00 00    	je     140002ff8 <__pformat_xint.isra.0+0x428>
   140002f43:	44 39 e0             	cmp    eax,r12d
   140002f46:	0f 8d e1 00 00 00    	jge    14000302d <__pformat_xint.isra.0+0x45d>
   140002f4c:	8b 7b 08             	mov    edi,DWORD PTR [rbx+0x8]
   140002f4f:	41 29 c4             	sub    r12d,eax
   140002f52:	44 89 63 0c          	mov    DWORD PTR [rbx+0xc],r12d
   140002f56:	f7 c7 00 08 00 00    	test   edi,0x800
   140002f5c:	0f 85 7e fe ff ff    	jne    140002de0 <__pformat_xint.isra.0+0x210>
   140002f62:	e9 a2 fe ff ff       	jmp    140002e09 <__pformat_xint.isra.0+0x239>
   140002f67:	66 0f 1f 84 00 00 00 	nop    WORD PTR [rax+rax*1+0x0]
   140002f6e:	00 00 
   140002f70:	44 8b 63 0c          	mov    r12d,DWORD PTR [rbx+0xc]
   140002f74:	41 39 c4             	cmp    r12d,eax
   140002f77:	41 0f 4d c4          	cmovge eax,r12d
   140002f7b:	48 98                	cdqe
   140002f7d:	48 83 c0 0f          	add    rax,0xf
   140002f81:	48 83 e0 f0          	and    rax,0xfffffffffffffff0
   140002f85:	e8 96 f6 ff ff       	call   140002620 <___chkstk_ms>
   140002f8a:	b9 03 00 00 00       	mov    ecx,0x3
   140002f8f:	41 b8 07 00 00 00    	mov    r8d,0x7
   140002f95:	48 29 c4             	sub    rsp,rax
   140002f98:	4c 8d 6c 24 20       	lea    r13,[rsp+0x20]
   140002f9d:	e9 3b fd ff ff       	jmp    140002cdd <__pformat_xint.isra.0+0x10d>
   140002fa2:	66 0f 1f 44 00 00    	nop    WORD PTR [rax+rax*1+0x0]
   140002fa8:	89 f8                	mov    eax,edi
   140002faa:	25 00 06 00 00       	and    eax,0x600
   140002faf:	3d 00 02 00 00       	cmp    eax,0x200
   140002fb4:	0f 85 4f fe ff ff    	jne    140002e09 <__pformat_xint.isra.0+0x239>
   140002fba:	4d 63 e4             	movsxd r12,r12d
   140002fbd:	48 89 f1             	mov    rcx,rsi
   140002fc0:	ba 30 00 00 00       	mov    edx,0x30
   140002fc5:	4d 89 e0             	mov    r8,r12
   140002fc8:	4c 01 e6             	add    rsi,r12
   140002fcb:	e8 20 4c 00 00       	call   140007bf0 <memset>
   140002fd0:	41 83 fe 6f          	cmp    r14d,0x6f
   140002fd4:	0f 84 b7 fd ff ff    	je     140002d91 <__pformat_xint.isra.0+0x1c1>
   140002fda:	81 e7 00 08 00 00    	and    edi,0x800
   140002fe0:	41 bc ff ff ff ff    	mov    r12d,0xffffffff
   140002fe6:	0f 84 ab fd ff ff    	je     140002d97 <__pformat_xint.isra.0+0x1c7>
   140002fec:	e9 fc fd ff ff       	jmp    140002ded <__pformat_xint.isra.0+0x21d>
   140002ff1:	0f 1f 80 00 00 00 00 	nop    DWORD PTR [rax+0x0]
   140002ff8:	48 8d 56 01          	lea    rdx,[rsi+0x1]
   140002ffc:	c6 06 30             	mov    BYTE PTR [rsi],0x30
   140002fff:	48 89 d0             	mov    rax,rdx
   140003002:	48 89 d6             	mov    rsi,rdx
   140003005:	4c 29 e8             	sub    rax,r13
   140003008:	e9 5d fd ff ff       	jmp    140002d6a <__pformat_xint.isra.0+0x19a>
   14000300d:	0f 1f 00             	nop    DWORD PTR [rax]
   140003010:	49 39 f5             	cmp    r13,rsi
   140003013:	0f 83 97 fd ff ff    	jae    140002db0 <__pformat_xint.isra.0+0x1e0>
   140003019:	8b 7b 08             	mov    edi,DWORD PTR [rbx+0x8]
   14000301c:	41 be fe ff ff ff    	mov    r14d,0xfffffffe
   140003022:	41 bc ff ff ff ff    	mov    r12d,0xffffffff
   140003028:	e9 33 fe ff ff       	jmp    140002e60 <__pformat_xint.isra.0+0x290>
   14000302d:	c7 43 0c ff ff ff ff 	mov    DWORD PTR [rbx+0xc],0xffffffff
   140003034:	e9 47 fd ff ff       	jmp    140002d80 <__pformat_xint.isra.0+0x1b0>
   140003039:	45 85 ff             	test   r15d,r15d
   14000303c:	78 10                	js     14000304e <__pformat_xint.isra.0+0x47e>
   14000303e:	44 88 36             	mov    BYTE PTR [rsi],r14b
   140003041:	48 83 c6 02          	add    rsi,0x2
   140003045:	c6 46 ff 30          	mov    BYTE PTR [rsi-0x1],0x30
   140003049:	e9 bb fd ff ff       	jmp    140002e09 <__pformat_xint.isra.0+0x239>
   14000304e:	89 f8                	mov    eax,edi
   140003050:	25 00 06 00 00       	and    eax,0x600
   140003055:	3d 00 02 00 00       	cmp    eax,0x200
   14000305a:	75 e2                	jne    14000303e <__pformat_xint.isra.0+0x46e>
   14000305c:	4d 63 e4             	movsxd r12,r12d
   14000305f:	48 89 f1             	mov    rcx,rsi
   140003062:	ba 30 00 00 00       	mov    edx,0x30
   140003067:	4d 89 e0             	mov    r8,r12
   14000306a:	4c 01 e6             	add    rsi,r12
   14000306d:	e8 7e 4b 00 00       	call   140007bf0 <memset>
   140003072:	e9 63 ff ff ff       	jmp    140002fda <__pformat_xint.isra.0+0x40a>
   140003077:	66 0f 1f 84 00 00 00 	nop    WORD PTR [rax+rax*1+0x0]
   14000307e:	00 00 

0000000140003080 <__pformat_int.isra.0>:
   140003080:	55                   	push   rbp
   140003081:	41 57                	push   r15
   140003083:	41 56                	push   r14
   140003085:	41 55                	push   r13
   140003087:	41 54                	push   r12
   140003089:	57                   	push   rdi
   14000308a:	56                   	push   rsi
   14000308b:	53                   	push   rbx
   14000308c:	48 83 ec 28          	sub    rsp,0x28
   140003090:	48 8d 6c 24 20       	lea    rbp,[rsp+0x20]
   140003095:	31 c0                	xor    eax,eax
   140003097:	44 8b 72 10          	mov    r14d,DWORD PTR [rdx+0x10]
   14000309b:	44 8b 62 08          	mov    r12d,DWORD PTR [rdx+0x8]
   14000309f:	45 85 f6             	test   r14d,r14d
   1400030a2:	41 0f 49 c6          	cmovns eax,r14d
   1400030a6:	48 89 d3             	mov    rbx,rdx
   1400030a9:	83 c0 17             	add    eax,0x17
   1400030ac:	41 f7 c4 00 10 00 00 	test   r12d,0x1000
   1400030b3:	74 0b                	je     1400030c0 <__pformat_int.isra.0+0x40>
   1400030b5:	66 83 7a 20 00       	cmp    WORD PTR [rdx+0x20],0x0
   1400030ba:	0f 85 48 02 00 00    	jne    140003308 <__pformat_int.isra.0+0x288>
   1400030c0:	8b 73 0c             	mov    esi,DWORD PTR [rbx+0xc]
   1400030c3:	39 c6                	cmp    esi,eax
   1400030c5:	0f 4d c6             	cmovge eax,esi
   1400030c8:	48 98                	cdqe
   1400030ca:	48 83 c0 0f          	add    rax,0xf
   1400030ce:	48 83 e0 f0          	and    rax,0xfffffffffffffff0
   1400030d2:	e8 49 f5 ff ff       	call   140002620 <___chkstk_ms>
   1400030d7:	48 29 c4             	sub    rsp,rax
   1400030da:	4c 8d 6c 24 20       	lea    r13,[rsp+0x20]
   1400030df:	41 f6 c4 80          	test   r12b,0x80
   1400030e3:	74 11                	je     1400030f6 <__pformat_int.isra.0+0x76>
   1400030e5:	48 85 c9             	test   rcx,rcx
   1400030e8:	0f 88 72 02 00 00    	js     140003360 <__pformat_int.isra.0+0x2e0>
   1400030ee:	41 80 e4 7f          	and    r12b,0x7f
   1400030f2:	44 89 63 08          	mov    DWORD PTR [rbx+0x8],r12d
   1400030f6:	4c 89 ef             	mov    rdi,r13
   1400030f9:	48 85 c9             	test   rcx,rcx
   1400030fc:	0f 84 8e 00 00 00    	je     140003190 <__pformat_int.isra.0+0x110>
   140003102:	49 b9 cd cc cc cc cc 	movabs r9,0xcccccccccccccccd
   140003109:	cc cc cc 
   14000310c:	45 89 e2             	mov    r10d,r12d
   14000310f:	4d 89 e8             	mov    r8,r13
   140003112:	49 bb 03 00 00 00 00 	movabs r11,0x8000000000000003
   140003119:	00 00 80 
   14000311c:	41 81 e2 00 10 00 00 	and    r10d,0x1000
   140003123:	0f 1f 44 00 00       	nop    DWORD PTR [rax+rax*1+0x0]
   140003128:	48 89 c8             	mov    rax,rcx
   14000312b:	49 8d 78 01          	lea    rdi,[r8+0x1]
   14000312f:	49 f7 e1             	mul    r9
   140003132:	48 89 c8             	mov    rax,rcx
   140003135:	48 c1 ea 03          	shr    rdx,0x3
   140003139:	4c 8d 3c 92          	lea    r15,[rdx+rdx*4]
   14000313d:	4d 01 ff             	add    r15,r15
   140003140:	4c 29 f8             	sub    rax,r15
   140003143:	83 c0 30             	add    eax,0x30
   140003146:	41 88 00             	mov    BYTE PTR [r8],al
   140003149:	48 83 f9 09          	cmp    rcx,0x9
   14000314d:	76 41                	jbe    140003190 <__pformat_int.isra.0+0x110>
   14000314f:	49 39 fd             	cmp    r13,rdi
   140003152:	74 2c                	je     140003180 <__pformat_int.isra.0+0x100>
   140003154:	45 85 d2             	test   r10d,r10d
   140003157:	74 27                	je     140003180 <__pformat_int.isra.0+0x100>
   140003159:	66 83 7b 20 00       	cmp    WORD PTR [rbx+0x20],0x0
   14000315e:	74 20                	je     140003180 <__pformat_int.isra.0+0x100>
   140003160:	48 89 f8             	mov    rax,rdi
   140003163:	4c 29 e8             	sub    rax,r13
   140003166:	4c 21 d8             	and    rax,r11
   140003169:	48 83 f8 03          	cmp    rax,0x3
   14000316d:	75 11                	jne    140003180 <__pformat_int.isra.0+0x100>
   14000316f:	c6 07 2c             	mov    BYTE PTR [rdi],0x2c
   140003172:	49 8d 78 02          	lea    rdi,[r8+0x2]
   140003176:	66 2e 0f 1f 84 00 00 	cs nop WORD PTR [rax+rax*1+0x0]
   14000317d:	00 00 00 
   140003180:	48 89 d1             	mov    rcx,rdx
   140003183:	49 89 f8             	mov    r8,rdi
   140003186:	eb a0                	jmp    140003128 <__pformat_int.isra.0+0xa8>
   140003188:	0f 1f 84 00 00 00 00 	nop    DWORD PTR [rax+rax*1+0x0]
   14000318f:	00 
   140003190:	45 85 f6             	test   r14d,r14d
   140003193:	7e 2b                	jle    1400031c0 <__pformat_int.isra.0+0x140>
   140003195:	48 89 f8             	mov    rax,rdi
   140003198:	45 89 f0             	mov    r8d,r14d
   14000319b:	4c 29 e8             	sub    rax,r13
   14000319e:	41 29 c0             	sub    r8d,eax
   1400031a1:	45 85 c0             	test   r8d,r8d
   1400031a4:	0f 8e 96 01 00 00    	jle    140003340 <__pformat_int.isra.0+0x2c0>
   1400031aa:	4d 63 f8             	movsxd r15,r8d
   1400031ad:	48 89 f9             	mov    rcx,rdi
   1400031b0:	ba 30 00 00 00       	mov    edx,0x30
   1400031b5:	4d 89 f8             	mov    r8,r15
   1400031b8:	4c 01 ff             	add    rdi,r15
   1400031bb:	e8 30 4a 00 00       	call   140007bf0 <memset>
   1400031c0:	49 39 fd             	cmp    r13,rdi
   1400031c3:	75 0c                	jne    1400031d1 <__pformat_int.isra.0+0x151>
   1400031c5:	48 89 f8             	mov    rax,rdi
   1400031c8:	45 85 f6             	test   r14d,r14d
   1400031cb:	0f 85 7b 01 00 00    	jne    14000334c <__pformat_int.isra.0+0x2cc>
   1400031d1:	85 f6                	test   esi,esi
   1400031d3:	7e 3b                	jle    140003210 <__pformat_int.isra.0+0x190>
   1400031d5:	48 89 f8             	mov    rax,rdi
   1400031d8:	4c 29 e8             	sub    rax,r13
   1400031db:	29 c6                	sub    esi,eax
   1400031dd:	89 73 0c             	mov    DWORD PTR [rbx+0xc],esi
   1400031e0:	85 f6                	test   esi,esi
   1400031e2:	7e 2c                	jle    140003210 <__pformat_int.isra.0+0x190>
   1400031e4:	41 f7 c4 c0 01 00 00 	test   r12d,0x1c0
   1400031eb:	0f 85 7f 01 00 00    	jne    140003370 <__pformat_int.isra.0+0x2f0>
   1400031f1:	45 85 f6             	test   r14d,r14d
   1400031f4:	0f 88 85 01 00 00    	js     14000337f <__pformat_int.isra.0+0x2ff>
   1400031fa:	41 f7 c4 00 04 00 00 	test   r12d,0x400
   140003201:	0f 84 c1 01 00 00    	je     1400033c8 <__pformat_int.isra.0+0x348>
   140003207:	66 0f 1f 84 00 00 00 	nop    WORD PTR [rax+rax*1+0x0]
   14000320e:	00 00 
   140003210:	41 f6 c4 80          	test   r12b,0x80
   140003214:	0f 84 d6 00 00 00    	je     1400032f0 <__pformat_int.isra.0+0x270>
   14000321a:	c6 07 2d             	mov    BYTE PTR [rdi],0x2d
   14000321d:	48 8d 77 01          	lea    rsi,[rdi+0x1]
   140003221:	49 39 f5             	cmp    r13,rsi
   140003224:	72 23                	jb     140003249 <__pformat_int.isra.0+0x1c9>
   140003226:	eb 58                	jmp    140003280 <__pformat_int.isra.0+0x200>
   140003228:	0f 1f 84 00 00 00 00 	nop    DWORD PTR [rax+rax*1+0x0]
   14000322f:	00 
   140003230:	48 63 43 24          	movsxd rax,DWORD PTR [rbx+0x24]
   140003234:	88 0c 02             	mov    BYTE PTR [rdx+rax*1],cl
   140003237:	8b 43 24             	mov    eax,DWORD PTR [rbx+0x24]
   14000323a:	83 c0 01             	add    eax,0x1
   14000323d:	89 43 24             	mov    DWORD PTR [rbx+0x24],eax
   140003240:	49 39 f5             	cmp    r13,rsi
   140003243:	74 3b                	je     140003280 <__pformat_int.isra.0+0x200>
   140003245:	44 8b 63 08          	mov    r12d,DWORD PTR [rbx+0x8]
   140003249:	48 83 ee 01          	sub    rsi,0x1
   14000324d:	41 f7 c4 00 40 00 00 	test   r12d,0x4000
   140003254:	75 08                	jne    14000325e <__pformat_int.isra.0+0x1de>
   140003256:	8b 43 24             	mov    eax,DWORD PTR [rbx+0x24]
   140003259:	39 43 28             	cmp    DWORD PTR [rbx+0x28],eax
   14000325c:	7e dc                	jle    14000323a <__pformat_int.isra.0+0x1ba>
   14000325e:	41 81 e4 00 20 00 00 	and    r12d,0x2000
   140003265:	0f be 0e             	movsx  ecx,BYTE PTR [rsi]
   140003268:	48 8b 13             	mov    rdx,QWORD PTR [rbx]
   14000326b:	74 c3                	je     140003230 <__pformat_int.isra.0+0x1b0>
   14000326d:	e8 4e 49 00 00       	call   140007bc0 <fputc>
   140003272:	8b 43 24             	mov    eax,DWORD PTR [rbx+0x24]
   140003275:	83 c0 01             	add    eax,0x1
   140003278:	89 43 24             	mov    DWORD PTR [rbx+0x24],eax
   14000327b:	49 39 f5             	cmp    r13,rsi
   14000327e:	75 c5                	jne    140003245 <__pformat_int.isra.0+0x1c5>
   140003280:	8b 43 0c             	mov    eax,DWORD PTR [rbx+0xc]
   140003283:	eb 17                	jmp    14000329c <__pformat_int.isra.0+0x21c>
   140003285:	0f 1f 00             	nop    DWORD PTR [rax]
   140003288:	48 63 43 24          	movsxd rax,DWORD PTR [rbx+0x24]
   14000328c:	c6 04 02 20          	mov    BYTE PTR [rdx+rax*1],0x20
   140003290:	8b 53 24             	mov    edx,DWORD PTR [rbx+0x24]
   140003293:	8b 43 0c             	mov    eax,DWORD PTR [rbx+0xc]
   140003296:	83 c2 01             	add    edx,0x1
   140003299:	89 53 24             	mov    DWORD PTR [rbx+0x24],edx
   14000329c:	89 c2                	mov    edx,eax
   14000329e:	83 e8 01             	sub    eax,0x1
   1400032a1:	89 43 0c             	mov    DWORD PTR [rbx+0xc],eax
   1400032a4:	85 d2                	test   edx,edx
   1400032a6:	7e 30                	jle    1400032d8 <__pformat_int.isra.0+0x258>
   1400032a8:	8b 4b 08             	mov    ecx,DWORD PTR [rbx+0x8]
   1400032ab:	f6 c5 40             	test   ch,0x40
   1400032ae:	75 08                	jne    1400032b8 <__pformat_int.isra.0+0x238>
   1400032b0:	8b 53 24             	mov    edx,DWORD PTR [rbx+0x24]
   1400032b3:	39 53 28             	cmp    DWORD PTR [rbx+0x28],edx
   1400032b6:	7e de                	jle    140003296 <__pformat_int.isra.0+0x216>
   1400032b8:	48 8b 13             	mov    rdx,QWORD PTR [rbx]
   1400032bb:	80 e5 20             	and    ch,0x20
   1400032be:	74 c8                	je     140003288 <__pformat_int.isra.0+0x208>
   1400032c0:	b9 20 00 00 00       	mov    ecx,0x20
   1400032c5:	e8 f6 48 00 00       	call   140007bc0 <fputc>
   1400032ca:	8b 53 24             	mov    edx,DWORD PTR [rbx+0x24]
   1400032cd:	8b 43 0c             	mov    eax,DWORD PTR [rbx+0xc]
   1400032d0:	eb c4                	jmp    140003296 <__pformat_int.isra.0+0x216>
   1400032d2:	66 0f 1f 44 00 00    	nop    WORD PTR [rax+rax*1+0x0]
   1400032d8:	48 8d 65 08          	lea    rsp,[rbp+0x8]
   1400032dc:	5b                   	pop    rbx
   1400032dd:	5e                   	pop    rsi
   1400032de:	5f                   	pop    rdi
   1400032df:	41 5c                	pop    r12
   1400032e1:	41 5d                	pop    r13
   1400032e3:	41 5e                	pop    r14
   1400032e5:	41 5f                	pop    r15
   1400032e7:	5d                   	pop    rbp
   1400032e8:	c3                   	ret
   1400032e9:	0f 1f 80 00 00 00 00 	nop    DWORD PTR [rax+0x0]
   1400032f0:	41 f7 c4 00 01 00 00 	test   r12d,0x100
   1400032f7:	74 27                	je     140003320 <__pformat_int.isra.0+0x2a0>
   1400032f9:	c6 07 2b             	mov    BYTE PTR [rdi],0x2b
   1400032fc:	48 8d 77 01          	lea    rsi,[rdi+0x1]
   140003300:	e9 1c ff ff ff       	jmp    140003221 <__pformat_int.isra.0+0x1a1>
   140003305:	0f 1f 00             	nop    DWORD PTR [rax]
   140003308:	89 c2                	mov    edx,eax
   14000330a:	41 b8 ab aa aa aa    	mov    r8d,0xaaaaaaab
   140003310:	49 0f af d0          	imul   rdx,r8
   140003314:	48 c1 ea 21          	shr    rdx,0x21
   140003318:	01 d0                	add    eax,edx
   14000331a:	e9 a1 fd ff ff       	jmp    1400030c0 <__pformat_int.isra.0+0x40>
   14000331f:	90                   	nop
   140003320:	48 89 fe             	mov    rsi,rdi
   140003323:	41 f6 c4 40          	test   r12b,0x40
   140003327:	0f 84 f4 fe ff ff    	je     140003221 <__pformat_int.isra.0+0x1a1>
   14000332d:	c6 07 20             	mov    BYTE PTR [rdi],0x20
   140003330:	48 83 c6 01          	add    rsi,0x1
   140003334:	e9 e8 fe ff ff       	jmp    140003221 <__pformat_int.isra.0+0x1a1>
   140003339:	0f 1f 80 00 00 00 00 	nop    DWORD PTR [rax+0x0]
   140003340:	49 39 fd             	cmp    r13,rdi
   140003343:	0f 85 88 fe ff ff    	jne    1400031d1 <__pformat_int.isra.0+0x151>
   140003349:	4c 89 e8             	mov    rax,r13
   14000334c:	c6 00 30             	mov    BYTE PTR [rax],0x30
   14000334f:	48 8d 78 01          	lea    rdi,[rax+0x1]
   140003353:	e9 79 fe ff ff       	jmp    1400031d1 <__pformat_int.isra.0+0x151>
   140003358:	0f 1f 84 00 00 00 00 	nop    DWORD PTR [rax+rax*1+0x0]
   14000335f:	00 
   140003360:	48 f7 d9             	neg    rcx
   140003363:	e9 9a fd ff ff       	jmp    140003102 <__pformat_int.isra.0+0x82>
   140003368:	0f 1f 84 00 00 00 00 	nop    DWORD PTR [rax+rax*1+0x0]
   14000336f:	00 
   140003370:	83 ee 01             	sub    esi,0x1
   140003373:	89 73 0c             	mov    DWORD PTR [rbx+0xc],esi
   140003376:	45 85 f6             	test   r14d,r14d
   140003379:	0f 89 7b fe ff ff    	jns    1400031fa <__pformat_int.isra.0+0x17a>
   14000337f:	44 89 e0             	mov    eax,r12d
   140003382:	25 00 06 00 00       	and    eax,0x600
   140003387:	3d 00 02 00 00       	cmp    eax,0x200
   14000338c:	0f 85 68 fe ff ff    	jne    1400031fa <__pformat_int.isra.0+0x17a>
   140003392:	8b 43 0c             	mov    eax,DWORD PTR [rbx+0xc]
   140003395:	8d 50 ff             	lea    edx,[rax-0x1]
   140003398:	89 53 0c             	mov    DWORD PTR [rbx+0xc],edx
   14000339b:	85 c0                	test   eax,eax
   14000339d:	0f 8e 6d fe ff ff    	jle    140003210 <__pformat_int.isra.0+0x190>
   1400033a3:	48 63 f0             	movsxd rsi,eax
   1400033a6:	48 89 f9             	mov    rcx,rdi
   1400033a9:	ba 30 00 00 00       	mov    edx,0x30
   1400033ae:	49 89 f0             	mov    r8,rsi
   1400033b1:	48 01 f7             	add    rdi,rsi
   1400033b4:	e8 37 48 00 00       	call   140007bf0 <memset>
   1400033b9:	c7 43 0c ff ff ff ff 	mov    DWORD PTR [rbx+0xc],0xffffffff
   1400033c0:	e9 4b fe ff ff       	jmp    140003210 <__pformat_int.isra.0+0x190>
   1400033c5:	0f 1f 00             	nop    DWORD PTR [rax]
   1400033c8:	8b 43 0c             	mov    eax,DWORD PTR [rbx+0xc]
   1400033cb:	8d 50 ff             	lea    edx,[rax-0x1]
   1400033ce:	89 53 0c             	mov    DWORD PTR [rbx+0xc],edx
   1400033d1:	85 c0                	test   eax,eax
   1400033d3:	0f 8e 37 fe ff ff    	jle    140003210 <__pformat_int.isra.0+0x190>
   1400033d9:	0f 1f 80 00 00 00 00 	nop    DWORD PTR [rax+0x0]
   1400033e0:	48 89 da             	mov    rdx,rbx
   1400033e3:	b9 20 00 00 00       	mov    ecx,0x20
   1400033e8:	e8 b3 f3 ff ff       	call   1400027a0 <__pformat_putc>
   1400033ed:	8b 43 0c             	mov    eax,DWORD PTR [rbx+0xc]
   1400033f0:	8d 50 ff             	lea    edx,[rax-0x1]
   1400033f3:	89 53 0c             	mov    DWORD PTR [rbx+0xc],edx
   1400033f6:	85 c0                	test   eax,eax
   1400033f8:	7f e6                	jg     1400033e0 <__pformat_int.isra.0+0x360>
   1400033fa:	44 8b 63 08          	mov    r12d,DWORD PTR [rbx+0x8]
   1400033fe:	e9 0d fe ff ff       	jmp    140003210 <__pformat_int.isra.0+0x190>
   140003403:	66 66 2e 0f 1f 84 00 	data16 cs nop WORD PTR [rax+rax*1+0x0]
   14000340a:	00 00 00 00 
   14000340e:	66 90                	xchg   ax,ax

0000000140003410 <__pformat_emit_radix_point>:
   140003410:	55                   	push   rbp
   140003411:	41 54                	push   r12
   140003413:	57                   	push   rdi
   140003414:	56                   	push   rsi
   140003415:	53                   	push   rbx
   140003416:	48 83 ec 30          	sub    rsp,0x30
   14000341a:	48 8d 6c 24 30       	lea    rbp,[rsp+0x30]
   14000341f:	83 79 14 fd          	cmp    DWORD PTR [rcx+0x14],0xfffffffd
   140003423:	48 89 cb             	mov    rbx,rcx
   140003426:	0f 84 d4 00 00 00    	je     140003500 <__pformat_emit_radix_point+0xf0>
   14000342c:	0f b7 51 18          	movzx  edx,WORD PTR [rcx+0x18]
   140003430:	66 85 d2             	test   dx,dx
   140003433:	0f 84 a7 00 00 00    	je     1400034e0 <__pformat_emit_radix_point+0xd0>
   140003439:	48 63 43 14          	movsxd rax,DWORD PTR [rbx+0x14]
   14000343d:	48 89 e7             	mov    rdi,rsp
   140003440:	48 83 c0 0f          	add    rax,0xf
   140003444:	48 83 e0 f0          	and    rax,0xfffffffffffffff0
   140003448:	e8 d3 f1 ff ff       	call   140002620 <___chkstk_ms>
   14000344d:	48 29 c4             	sub    rsp,rax
   140003450:	48 c7 45 f8 00 00 00 	mov    QWORD PTR [rbp-0x8],0x0
   140003457:	00 
   140003458:	4c 8d 45 f8          	lea    r8,[rbp-0x8]
   14000345c:	48 8d 74 24 20       	lea    rsi,[rsp+0x20]
   140003461:	48 89 f1             	mov    rcx,rsi
   140003464:	e8 47 42 00 00       	call   1400076b0 <wcrtomb>
   140003469:	85 c0                	test   eax,eax
   14000346b:	0f 8e cf 00 00 00    	jle    140003540 <__pformat_emit_radix_point+0x130>
   140003471:	83 e8 01             	sub    eax,0x1
   140003474:	4c 8d 64 06 01       	lea    r12,[rsi+rax*1+0x1]
   140003479:	eb 1a                	jmp    140003495 <__pformat_emit_radix_point+0x85>
   14000347b:	0f 1f 44 00 00       	nop    DWORD PTR [rax+rax*1+0x0]
   140003480:	48 63 53 24          	movsxd rdx,DWORD PTR [rbx+0x24]
   140003484:	88 0c 10             	mov    BYTE PTR [rax+rdx*1],cl
   140003487:	8b 43 24             	mov    eax,DWORD PTR [rbx+0x24]
   14000348a:	83 c0 01             	add    eax,0x1
   14000348d:	89 43 24             	mov    DWORD PTR [rbx+0x24],eax
   140003490:	49 39 f4             	cmp    r12,rsi
   140003493:	74 36                	je     1400034cb <__pformat_emit_radix_point+0xbb>
   140003495:	8b 53 08             	mov    edx,DWORD PTR [rbx+0x8]
   140003498:	48 83 c6 01          	add    rsi,0x1
   14000349c:	f6 c6 40             	test   dh,0x40
   14000349f:	75 08                	jne    1400034a9 <__pformat_emit_radix_point+0x99>
   1400034a1:	8b 43 24             	mov    eax,DWORD PTR [rbx+0x24]
   1400034a4:	39 43 28             	cmp    DWORD PTR [rbx+0x28],eax
   1400034a7:	7e e1                	jle    14000348a <__pformat_emit_radix_point+0x7a>
   1400034a9:	0f be 4e ff          	movsx  ecx,BYTE PTR [rsi-0x1]
   1400034ad:	48 8b 03             	mov    rax,QWORD PTR [rbx]
   1400034b0:	80 e6 20             	and    dh,0x20
   1400034b3:	74 cb                	je     140003480 <__pformat_emit_radix_point+0x70>
   1400034b5:	48 89 c2             	mov    rdx,rax
   1400034b8:	e8 03 47 00 00       	call   140007bc0 <fputc>
   1400034bd:	8b 43 24             	mov    eax,DWORD PTR [rbx+0x24]
   1400034c0:	83 c0 01             	add    eax,0x1
   1400034c3:	89 43 24             	mov    DWORD PTR [rbx+0x24],eax
   1400034c6:	49 39 f4             	cmp    r12,rsi
   1400034c9:	75 ca                	jne    140003495 <__pformat_emit_radix_point+0x85>
   1400034cb:	48 89 fc             	mov    rsp,rdi
   1400034ce:	48 89 ec             	mov    rsp,rbp
   1400034d1:	5b                   	pop    rbx
   1400034d2:	5e                   	pop    rsi
   1400034d3:	5f                   	pop    rdi
   1400034d4:	41 5c                	pop    r12
   1400034d6:	5d                   	pop    rbp
   1400034d7:	c3                   	ret
   1400034d8:	0f 1f 84 00 00 00 00 	nop    DWORD PTR [rax+rax*1+0x0]
   1400034df:	00 
   1400034e0:	48 89 da             	mov    rdx,rbx
   1400034e3:	b9 2e 00 00 00       	mov    ecx,0x2e
   1400034e8:	e8 b3 f2 ff ff       	call   1400027a0 <__pformat_putc>
   1400034ed:	90                   	nop
   1400034ee:	48 89 ec             	mov    rsp,rbp
   1400034f1:	5b                   	pop    rbx
   1400034f2:	5e                   	pop    rsi
   1400034f3:	5f                   	pop    rdi
   1400034f4:	41 5c                	pop    r12
   1400034f6:	5d                   	pop    rbp
   1400034f7:	c3                   	ret
   1400034f8:	0f 1f 84 00 00 00 00 	nop    DWORD PTR [rax+rax*1+0x0]
   1400034ff:	00 
   140003500:	48 c7 45 f8 00 00 00 	mov    QWORD PTR [rbp-0x8],0x0
   140003507:	00 
   140003508:	48 8d 75 f8          	lea    rsi,[rbp-0x8]
   14000350c:	e8 c7 46 00 00       	call   140007bd8 <localeconv>
   140003511:	48 8d 4d f6          	lea    rcx,[rbp-0xa]
   140003515:	49 89 f1             	mov    r9,rsi
   140003518:	41 b8 10 00 00 00    	mov    r8d,0x10
   14000351e:	48 8b 10             	mov    rdx,QWORD PTR [rax]
   140003521:	e8 2a 44 00 00       	call   140007950 <mbrtowc>
   140003526:	85 c0                	test   eax,eax
   140003528:	7e 2e                	jle    140003558 <__pformat_emit_radix_point+0x148>
   14000352a:	0f b7 55 f6          	movzx  edx,WORD PTR [rbp-0xa]
   14000352e:	66 89 53 18          	mov    WORD PTR [rbx+0x18],dx
   140003532:	89 43 14             	mov    DWORD PTR [rbx+0x14],eax
   140003535:	e9 f6 fe ff ff       	jmp    140003430 <__pformat_emit_radix_point+0x20>
   14000353a:	66 0f 1f 44 00 00    	nop    WORD PTR [rax+rax*1+0x0]
   140003540:	48 89 da             	mov    rdx,rbx
   140003543:	b9 2e 00 00 00       	mov    ecx,0x2e
   140003548:	e8 53 f2 ff ff       	call   1400027a0 <__pformat_putc>
   14000354d:	48 89 fc             	mov    rsp,rdi
   140003550:	e9 79 ff ff ff       	jmp    1400034ce <__pformat_emit_radix_point+0xbe>
   140003555:	0f 1f 00             	nop    DWORD PTR [rax]
   140003558:	0f b7 53 18          	movzx  edx,WORD PTR [rbx+0x18]
   14000355c:	eb d4                	jmp    140003532 <__pformat_emit_radix_point+0x122>
   14000355e:	66 90                	xchg   ax,ax

0000000140003560 <__pformat_emit_float>:
   140003560:	55                   	push   rbp
   140003561:	57                   	push   rdi
   140003562:	56                   	push   rsi
   140003563:	53                   	push   rbx
   140003564:	48 83 ec 28          	sub    rsp,0x28
   140003568:	89 cd                	mov    ebp,ecx
   14000356a:	48 89 d7             	mov    rdi,rdx
   14000356d:	41 8b 49 0c          	mov    ecx,DWORD PTR [r9+0xc]
   140003571:	44 89 c6             	mov    esi,r8d
   140003574:	4c 89 cb             	mov    rbx,r9
   140003577:	45 85 c0             	test   r8d,r8d
   14000357a:	0f 8e 30 01 00 00    	jle    1400036b0 <__pformat_emit_float+0x150>
   140003580:	41 39 c8             	cmp    r8d,ecx
   140003583:	7f 63                	jg     1400035e8 <__pformat_emit_float+0x88>
   140003585:	41 8b 41 10          	mov    eax,DWORD PTR [r9+0x10]
   140003589:	44 29 c1             	sub    ecx,r8d
   14000358c:	39 c1                	cmp    ecx,eax
   14000358e:	0f 8e 3c 03 00 00    	jle    1400038d0 <__pformat_emit_float+0x370>
   140003594:	29 c1                	sub    ecx,eax
   140003596:	89 4b 0c             	mov    DWORD PTR [rbx+0xc],ecx
   140003599:	85 c0                	test   eax,eax
   14000359b:	0f 8e 47 02 00 00    	jle    1400037e8 <__pformat_emit_float+0x288>
   1400035a1:	83 e9 01             	sub    ecx,0x1
   1400035a4:	89 4b 0c             	mov    DWORD PTR [rbx+0xc],ecx
   1400035a7:	85 f6                	test   esi,esi
   1400035a9:	7e 0a                	jle    1400035b5 <__pformat_emit_float+0x55>
   1400035ab:	f6 43 09 10          	test   BYTE PTR [rbx+0x9],0x10
   1400035af:	0f 85 50 02 00 00    	jne    140003805 <__pformat_emit_float+0x2a5>
   1400035b5:	85 c9                	test   ecx,ecx
   1400035b7:	7e 42                	jle    1400035fb <__pformat_emit_float+0x9b>
   1400035b9:	85 ed                	test   ebp,ebp
   1400035bb:	0f 85 c7 01 00 00    	jne    140003788 <__pformat_emit_float+0x228>
   1400035c1:	8b 43 08             	mov    eax,DWORD PTR [rbx+0x8]
   1400035c4:	a9 c0 01 00 00       	test   eax,0x1c0
   1400035c9:	0f 84 e9 02 00 00    	je     1400038b8 <__pformat_emit_float+0x358>
   1400035cf:	8d 51 ff             	lea    edx,[rcx-0x1]
   1400035d2:	89 53 0c             	mov    DWORD PTR [rbx+0xc],edx
   1400035d5:	85 d2                	test   edx,edx
   1400035d7:	74 2d                	je     140003606 <__pformat_emit_float+0xa6>
   1400035d9:	f6 c4 06             	test   ah,0x6
   1400035dc:	75 28                	jne    140003606 <__pformat_emit_float+0xa6>
   1400035de:	e9 c0 01 00 00       	jmp    1400037a3 <__pformat_emit_float+0x243>
   1400035e3:	0f 1f 44 00 00       	nop    DWORD PTR [rax+rax*1+0x0]
   1400035e8:	41 c7 41 0c ff ff ff 	mov    DWORD PTR [r9+0xc],0xffffffff
   1400035ef:	ff 
   1400035f0:	41 f6 41 09 10       	test   BYTE PTR [r9+0x9],0x10
   1400035f5:	0f 85 65 02 00 00    	jne    140003860 <__pformat_emit_float+0x300>
   1400035fb:	85 ed                	test   ebp,ebp
   1400035fd:	0f 85 dd 00 00 00    	jne    1400036e0 <__pformat_emit_float+0x180>
   140003603:	8b 43 08             	mov    eax,DWORD PTR [rbx+0x8]
   140003606:	f6 c4 01             	test   ah,0x1
   140003609:	0f 85 09 02 00 00    	jne    140003818 <__pformat_emit_float+0x2b8>
   14000360f:	a8 40                	test   al,0x40
   140003611:	0f 85 f9 02 00 00    	jne    140003910 <__pformat_emit_float+0x3b0>
   140003617:	8b 43 0c             	mov    eax,DWORD PTR [rbx+0xc]
   14000361a:	85 c0                	test   eax,eax
   14000361c:	7e 15                	jle    140003633 <__pformat_emit_float+0xd3>
   14000361e:	8b 53 08             	mov    edx,DWORD PTR [rbx+0x8]
   140003621:	81 e2 00 06 00 00    	and    edx,0x600
   140003627:	81 fa 00 02 00 00    	cmp    edx,0x200
   14000362d:	0f 84 fd 01 00 00    	je     140003830 <__pformat_emit_float+0x2d0>
   140003633:	85 f6                	test   esi,esi
   140003635:	0f 8e 05 01 00 00    	jle    140003740 <__pformat_emit_float+0x1e0>
   14000363b:	0f 1f 44 00 00       	nop    DWORD PTR [rax+rax*1+0x0]
   140003640:	0f b6 07             	movzx  eax,BYTE PTR [rdi]
   140003643:	b9 30 00 00 00       	mov    ecx,0x30
   140003648:	84 c0                	test   al,al
   14000364a:	74 07                	je     140003653 <__pformat_emit_float+0xf3>
   14000364c:	48 83 c7 01          	add    rdi,0x1
   140003650:	0f be c8             	movsx  ecx,al
   140003653:	48 89 da             	mov    rdx,rbx
   140003656:	e8 45 f1 ff ff       	call   1400027a0 <__pformat_putc>
   14000365b:	83 ee 01             	sub    esi,0x1
   14000365e:	74 30                	je     140003690 <__pformat_emit_float+0x130>
   140003660:	f6 43 09 10          	test   BYTE PTR [rbx+0x9],0x10
   140003664:	74 da                	je     140003640 <__pformat_emit_float+0xe0>
   140003666:	66 83 7b 20 00       	cmp    WORD PTR [rbx+0x20],0x0
   14000366b:	74 d3                	je     140003640 <__pformat_emit_float+0xe0>
   14000366d:	69 c6 ab aa aa aa    	imul   eax,esi,0xaaaaaaab
   140003673:	3d 55 55 55 55       	cmp    eax,0x55555555
   140003678:	77 c6                	ja     140003640 <__pformat_emit_float+0xe0>
   14000367a:	48 8d 4b 20          	lea    rcx,[rbx+0x20]
   14000367e:	49 89 d8             	mov    r8,rbx
   140003681:	ba 01 00 00 00       	mov    edx,0x1
   140003686:	e8 75 f1 ff ff       	call   140002800 <__pformat_wputchars>
   14000368b:	eb b3                	jmp    140003640 <__pformat_emit_float+0xe0>
   14000368d:	0f 1f 00             	nop    DWORD PTR [rax]
   140003690:	8b 43 10             	mov    eax,DWORD PTR [rbx+0x10]
   140003693:	85 c0                	test   eax,eax
   140003695:	7f 61                	jg     1400036f8 <__pformat_emit_float+0x198>
   140003697:	f6 43 09 08          	test   BYTE PTR [rbx+0x9],0x8
   14000369b:	0f 85 b7 00 00 00    	jne    140003758 <__pformat_emit_float+0x1f8>
   1400036a1:	83 e8 01             	sub    eax,0x1
   1400036a4:	89 43 10             	mov    DWORD PTR [rbx+0x10],eax
   1400036a7:	48 83 c4 28          	add    rsp,0x28
   1400036ab:	5b                   	pop    rbx
   1400036ac:	5e                   	pop    rsi
   1400036ad:	5f                   	pop    rdi
   1400036ae:	5d                   	pop    rbp
   1400036af:	c3                   	ret
   1400036b0:	85 c9                	test   ecx,ecx
   1400036b2:	0f 8e 18 01 00 00    	jle    1400037d0 <__pformat_emit_float+0x270>
   1400036b8:	41 8b 41 10          	mov    eax,DWORD PTR [r9+0x10]
   1400036bc:	83 e9 01             	sub    ecx,0x1
   1400036bf:	39 c1                	cmp    ecx,eax
   1400036c1:	0f 8f cd fe ff ff    	jg     140003594 <__pformat_emit_float+0x34>
   1400036c7:	c7 43 0c ff ff ff ff 	mov    DWORD PTR [rbx+0xc],0xffffffff
   1400036ce:	85 ed                	test   ebp,ebp
   1400036d0:	0f 84 2d ff ff ff    	je     140003603 <__pformat_emit_float+0xa3>
   1400036d6:	66 2e 0f 1f 84 00 00 	cs nop WORD PTR [rax+rax*1+0x0]
   1400036dd:	00 00 00 
   1400036e0:	48 89 da             	mov    rdx,rbx
   1400036e3:	b9 2d 00 00 00       	mov    ecx,0x2d
   1400036e8:	e8 b3 f0 ff ff       	call   1400027a0 <__pformat_putc>
   1400036ed:	e9 25 ff ff ff       	jmp    140003617 <__pformat_emit_float+0xb7>
   1400036f2:	66 0f 1f 44 00 00    	nop    WORD PTR [rax+rax*1+0x0]
   1400036f8:	48 89 d9             	mov    rcx,rbx
   1400036fb:	e8 10 fd ff ff       	call   140003410 <__pformat_emit_radix_point>
   140003700:	eb 21                	jmp    140003723 <__pformat_emit_float+0x1c3>
   140003702:	66 0f 1f 44 00 00    	nop    WORD PTR [rax+rax*1+0x0]
   140003708:	0f b6 07             	movzx  eax,BYTE PTR [rdi]
   14000370b:	b9 30 00 00 00       	mov    ecx,0x30
   140003710:	84 c0                	test   al,al
   140003712:	74 07                	je     14000371b <__pformat_emit_float+0x1bb>
   140003714:	48 83 c7 01          	add    rdi,0x1
   140003718:	0f be c8             	movsx  ecx,al
   14000371b:	48 89 da             	mov    rdx,rbx
   14000371e:	e8 7d f0 ff ff       	call   1400027a0 <__pformat_putc>
   140003723:	8b 43 10             	mov    eax,DWORD PTR [rbx+0x10]
   140003726:	8d 50 ff             	lea    edx,[rax-0x1]
   140003729:	89 53 10             	mov    DWORD PTR [rbx+0x10],edx
   14000372c:	85 c0                	test   eax,eax
   14000372e:	7f d8                	jg     140003708 <__pformat_emit_float+0x1a8>
   140003730:	48 83 c4 28          	add    rsp,0x28
   140003734:	5b                   	pop    rbx
   140003735:	5e                   	pop    rsi
   140003736:	5f                   	pop    rdi
   140003737:	5d                   	pop    rbp
   140003738:	c3                   	ret
   140003739:	0f 1f 80 00 00 00 00 	nop    DWORD PTR [rax+0x0]
   140003740:	48 89 da             	mov    rdx,rbx
   140003743:	b9 30 00 00 00       	mov    ecx,0x30
   140003748:	e8 53 f0 ff ff       	call   1400027a0 <__pformat_putc>
   14000374d:	8b 43 10             	mov    eax,DWORD PTR [rbx+0x10]
   140003750:	85 c0                	test   eax,eax
   140003752:	0f 8e ca 01 00 00    	jle    140003922 <__pformat_emit_float+0x3c2>
   140003758:	48 89 d9             	mov    rcx,rbx
   14000375b:	e8 b0 fc ff ff       	call   140003410 <__pformat_emit_radix_point>
   140003760:	85 f6                	test   esi,esi
   140003762:	74 bf                	je     140003723 <__pformat_emit_float+0x1c3>
   140003764:	8b 43 10             	mov    eax,DWORD PTR [rbx+0x10]
   140003767:	01 f0                	add    eax,esi
   140003769:	89 43 10             	mov    DWORD PTR [rbx+0x10],eax
   14000376c:	0f 1f 40 00          	nop    DWORD PTR [rax+0x0]
   140003770:	48 89 da             	mov    rdx,rbx
   140003773:	b9 30 00 00 00       	mov    ecx,0x30
   140003778:	e8 23 f0 ff ff       	call   1400027a0 <__pformat_putc>
   14000377d:	83 c6 01             	add    esi,0x1
   140003780:	75 ee                	jne    140003770 <__pformat_emit_float+0x210>
   140003782:	eb 9f                	jmp    140003723 <__pformat_emit_float+0x1c3>
   140003784:	0f 1f 40 00          	nop    DWORD PTR [rax+0x0]
   140003788:	8d 41 ff             	lea    eax,[rcx-0x1]
   14000378b:	89 43 0c             	mov    DWORD PTR [rbx+0xc],eax
   14000378e:	85 c0                	test   eax,eax
   140003790:	0f 84 4a ff ff ff    	je     1400036e0 <__pformat_emit_float+0x180>
   140003796:	f7 43 08 00 06 00 00 	test   DWORD PTR [rbx+0x8],0x600
   14000379d:	0f 85 3d ff ff ff    	jne    1400036e0 <__pformat_emit_float+0x180>
   1400037a3:	83 e9 02             	sub    ecx,0x2
   1400037a6:	89 4b 0c             	mov    DWORD PTR [rbx+0xc],ecx
   1400037a9:	0f 1f 80 00 00 00 00 	nop    DWORD PTR [rax+0x0]
   1400037b0:	48 89 da             	mov    rdx,rbx
   1400037b3:	b9 20 00 00 00       	mov    ecx,0x20
   1400037b8:	e8 e3 ef ff ff       	call   1400027a0 <__pformat_putc>
   1400037bd:	8b 43 0c             	mov    eax,DWORD PTR [rbx+0xc]
   1400037c0:	8d 50 ff             	lea    edx,[rax-0x1]
   1400037c3:	89 53 0c             	mov    DWORD PTR [rbx+0xc],edx
   1400037c6:	85 c0                	test   eax,eax
   1400037c8:	7f e6                	jg     1400037b0 <__pformat_emit_float+0x250>
   1400037ca:	e9 2c fe ff ff       	jmp    1400035fb <__pformat_emit_float+0x9b>
   1400037cf:	90                   	nop
   1400037d0:	0f 85 f1 fe ff ff    	jne    1400036c7 <__pformat_emit_float+0x167>
   1400037d6:	41 8b 49 10          	mov    ecx,DWORD PTR [r9+0x10]
   1400037da:	85 c9                	test   ecx,ecx
   1400037dc:	0f 89 e5 fe ff ff    	jns    1400036c7 <__pformat_emit_float+0x167>
   1400037e2:	f7 d9                	neg    ecx
   1400037e4:	41 89 49 0c          	mov    DWORD PTR [r9+0xc],ecx
   1400037e8:	8b 43 08             	mov    eax,DWORD PTR [rbx+0x8]
   1400037eb:	f6 c4 08             	test   ah,0x8
   1400037ee:	0f 85 ad fd ff ff    	jne    1400035a1 <__pformat_emit_float+0x41>
   1400037f4:	85 f6                	test   esi,esi
   1400037f6:	0f 8e bd fd ff ff    	jle    1400035b9 <__pformat_emit_float+0x59>
   1400037fc:	f6 c4 10             	test   ah,0x10
   1400037ff:	0f 84 b4 fd ff ff    	je     1400035b9 <__pformat_emit_float+0x59>
   140003805:	66 83 7b 20 00       	cmp    WORD PTR [rbx+0x20],0x0
   14000380a:	0f 84 a5 fd ff ff    	je     1400035b5 <__pformat_emit_float+0x55>
   140003810:	e9 dd 00 00 00       	jmp    1400038f2 <__pformat_emit_float+0x392>
   140003815:	0f 1f 00             	nop    DWORD PTR [rax]
   140003818:	48 89 da             	mov    rdx,rbx
   14000381b:	b9 2b 00 00 00       	mov    ecx,0x2b
   140003820:	e8 7b ef ff ff       	call   1400027a0 <__pformat_putc>
   140003825:	e9 ed fd ff ff       	jmp    140003617 <__pformat_emit_float+0xb7>
   14000382a:	66 0f 1f 44 00 00    	nop    WORD PTR [rax+rax*1+0x0]
   140003830:	83 e8 01             	sub    eax,0x1
   140003833:	89 43 0c             	mov    DWORD PTR [rbx+0xc],eax
   140003836:	66 2e 0f 1f 84 00 00 	cs nop WORD PTR [rax+rax*1+0x0]
   14000383d:	00 00 00 
   140003840:	48 89 da             	mov    rdx,rbx
   140003843:	b9 30 00 00 00       	mov    ecx,0x30
   140003848:	e8 53 ef ff ff       	call   1400027a0 <__pformat_putc>
   14000384d:	8b 43 0c             	mov    eax,DWORD PTR [rbx+0xc]
   140003850:	8d 50 ff             	lea    edx,[rax-0x1]
   140003853:	89 53 0c             	mov    DWORD PTR [rbx+0xc],edx
   140003856:	85 c0                	test   eax,eax
   140003858:	7f e6                	jg     140003840 <__pformat_emit_float+0x2e0>
   14000385a:	e9 d4 fd ff ff       	jmp    140003633 <__pformat_emit_float+0xd3>
   14000385f:	90                   	nop
   140003860:	66 41 83 79 20 00    	cmp    WORD PTR [r9+0x20],0x0
   140003866:	0f 84 8f fd ff ff    	je     1400035fb <__pformat_emit_float+0x9b>
   14000386c:	41 8d 40 02          	lea    eax,[r8+0x2]
   140003870:	ba ab aa aa aa       	mov    edx,0xaaaaaaab
   140003875:	b9 ff ff ff ff       	mov    ecx,0xffffffff
   14000387a:	48 0f af c2          	imul   rax,rdx
   14000387e:	48 c1 e8 21          	shr    rax,0x21
   140003882:	83 f8 01             	cmp    eax,0x1
   140003885:	0f 84 70 fd ff ff    	je     1400035fb <__pformat_emit_float+0x9b>
   14000388b:	83 e8 01             	sub    eax,0x1
   14000388e:	29 c8                	sub    eax,ecx
   140003890:	eb 16                	jmp    1400038a8 <__pformat_emit_float+0x348>
   140003892:	66 0f 1f 44 00 00    	nop    WORD PTR [rax+rax*1+0x0]
   140003898:	83 e9 01             	sub    ecx,0x1
   14000389b:	89 c2                	mov    edx,eax
   14000389d:	01 ca                	add    edx,ecx
   14000389f:	89 4b 0c             	mov    DWORD PTR [rbx+0xc],ecx
   1400038a2:	0f 84 0d fd ff ff    	je     1400035b5 <__pformat_emit_float+0x55>
   1400038a8:	85 c9                	test   ecx,ecx
   1400038aa:	7f ec                	jg     140003898 <__pformat_emit_float+0x338>
   1400038ac:	e9 4a fd ff ff       	jmp    1400035fb <__pformat_emit_float+0x9b>
   1400038b1:	0f 1f 80 00 00 00 00 	nop    DWORD PTR [rax+0x0]
   1400038b8:	83 e9 01             	sub    ecx,0x1
   1400038bb:	f6 c4 06             	test   ah,0x6
   1400038be:	0f 84 e2 fe ff ff    	je     1400037a6 <__pformat_emit_float+0x246>
   1400038c4:	e9 3d fd ff ff       	jmp    140003606 <__pformat_emit_float+0xa6>
   1400038c9:	0f 1f 80 00 00 00 00 	nop    DWORD PTR [rax+0x0]
   1400038d0:	41 c7 41 0c ff ff ff 	mov    DWORD PTR [r9+0xc],0xffffffff
   1400038d7:	ff 
   1400038d8:	41 f6 41 09 10       	test   BYTE PTR [r9+0x9],0x10
   1400038dd:	0f 84 18 fd ff ff    	je     1400035fb <__pformat_emit_float+0x9b>
   1400038e3:	66 41 83 79 20 00    	cmp    WORD PTR [r9+0x20],0x0
   1400038e9:	0f 84 0c fd ff ff    	je     1400035fb <__pformat_emit_float+0x9b>
   1400038ef:	83 c9 ff             	or     ecx,0xffffffff
   1400038f2:	8d 46 02             	lea    eax,[rsi+0x2]
   1400038f5:	41 b8 03 00 00 00    	mov    r8d,0x3
   1400038fb:	99                   	cdq
   1400038fc:	41 f7 f8             	idiv   r8d
   1400038ff:	83 f8 01             	cmp    eax,0x1
   140003902:	75 87                	jne    14000388b <__pformat_emit_float+0x32b>
   140003904:	e9 ac fc ff ff       	jmp    1400035b5 <__pformat_emit_float+0x55>
   140003909:	0f 1f 80 00 00 00 00 	nop    DWORD PTR [rax+0x0]
   140003910:	48 89 da             	mov    rdx,rbx
   140003913:	b9 20 00 00 00       	mov    ecx,0x20
   140003918:	e8 83 ee ff ff       	call   1400027a0 <__pformat_putc>
   14000391d:	e9 f5 fc ff ff       	jmp    140003617 <__pformat_emit_float+0xb7>
   140003922:	f6 43 09 08          	test   BYTE PTR [rbx+0x9],0x8
   140003926:	0f 85 2c fe ff ff    	jne    140003758 <__pformat_emit_float+0x1f8>
   14000392c:	85 f6                	test   esi,esi
   14000392e:	0f 85 33 fe ff ff    	jne    140003767 <__pformat_emit_float+0x207>
   140003934:	e9 68 fd ff ff       	jmp    1400036a1 <__pformat_emit_float+0x141>
   140003939:	0f 1f 80 00 00 00 00 	nop    DWORD PTR [rax+0x0]

0000000140003940 <__pformat_emit_efloat>:
   140003940:	57                   	push   rdi
   140003941:	56                   	push   rsi
   140003942:	53                   	push   rbx
   140003943:	48 83 ec 20          	sub    rsp,0x20
   140003947:	41 ba 01 00 00 00    	mov    r10d,0x1
   14000394d:	41 83 e8 01          	sub    r8d,0x1
   140003951:	41 89 cb             	mov    r11d,ecx
   140003954:	4c 89 cb             	mov    rbx,r9
   140003957:	49 63 f0             	movsxd rsi,r8d
   14000395a:	41 c1 f8 1f          	sar    r8d,0x1f
   14000395e:	48 69 ce 67 66 66 66 	imul   rcx,rsi,0x66666667
   140003965:	48 c1 f9 22          	sar    rcx,0x22
   140003969:	44 29 c1             	sub    ecx,r8d
   14000396c:	74 1d                	je     14000398b <__pformat_emit_efloat+0x4b>
   14000396e:	66 90                	xchg   ax,ax
   140003970:	48 63 c1             	movsxd rax,ecx
   140003973:	c1 f9 1f             	sar    ecx,0x1f
   140003976:	41 83 c2 01          	add    r10d,0x1
   14000397a:	48 69 c0 67 66 66 66 	imul   rax,rax,0x66666667
   140003981:	48 c1 f8 22          	sar    rax,0x22
   140003985:	29 c8                	sub    eax,ecx
   140003987:	89 c1                	mov    ecx,eax
   140003989:	75 e5                	jne    140003970 <__pformat_emit_efloat+0x30>
   14000398b:	8b 43 2c             	mov    eax,DWORD PTR [rbx+0x2c]
   14000398e:	83 f8 ff             	cmp    eax,0xffffffff
   140003991:	75 0c                	jne    14000399f <__pformat_emit_efloat+0x5f>
   140003993:	c7 43 2c 02 00 00 00 	mov    DWORD PTR [rbx+0x2c],0x2
   14000399a:	b8 02 00 00 00       	mov    eax,0x2
   14000399f:	44 39 d0             	cmp    eax,r10d
   1400039a2:	44 89 d7             	mov    edi,r10d
   1400039a5:	44 8b 43 0c          	mov    r8d,DWORD PTR [rbx+0xc]
   1400039a9:	49 89 d9             	mov    r9,rbx
   1400039ac:	0f 4d f8             	cmovge edi,eax
   1400039af:	44 89 c0             	mov    eax,r8d
   1400039b2:	8d 4f 02             	lea    ecx,[rdi+0x2]
   1400039b5:	29 c8                	sub    eax,ecx
   1400039b7:	41 39 c8             	cmp    r8d,ecx
   1400039ba:	b9 ff ff ff ff       	mov    ecx,0xffffffff
   1400039bf:	41 b8 01 00 00 00    	mov    r8d,0x1
   1400039c5:	0f 4e c1             	cmovle eax,ecx
   1400039c8:	44 89 d9             	mov    ecx,r11d
   1400039cb:	89 43 0c             	mov    DWORD PTR [rbx+0xc],eax
   1400039ce:	e8 8d fb ff ff       	call   140003560 <__pformat_emit_float>
   1400039d3:	8b 4b 08             	mov    ecx,DWORD PTR [rbx+0x8]
   1400039d6:	8b 43 2c             	mov    eax,DWORD PTR [rbx+0x2c]
   1400039d9:	48 89 da             	mov    rdx,rbx
   1400039dc:	89 43 10             	mov    DWORD PTR [rbx+0x10],eax
   1400039df:	89 c8                	mov    eax,ecx
   1400039e1:	83 e1 20             	and    ecx,0x20
   1400039e4:	0d c0 01 00 00       	or     eax,0x1c0
   1400039e9:	83 c9 45             	or     ecx,0x45
   1400039ec:	89 43 08             	mov    DWORD PTR [rbx+0x8],eax
   1400039ef:	e8 ac ed ff ff       	call   1400027a0 <__pformat_putc>
   1400039f4:	8d 47 01             	lea    eax,[rdi+0x1]
   1400039f7:	01 43 0c             	add    DWORD PTR [rbx+0xc],eax
   1400039fa:	48 89 da             	mov    rdx,rbx
   1400039fd:	48 89 f1             	mov    rcx,rsi
   140003a00:	48 83 c4 20          	add    rsp,0x20
   140003a04:	5b                   	pop    rbx
   140003a05:	5e                   	pop    rsi
   140003a06:	5f                   	pop    rdi
   140003a07:	e9 74 f6 ff ff       	jmp    140003080 <__pformat_int.isra.0>
   140003a0c:	0f 1f 40 00          	nop    DWORD PTR [rax+0x0]

0000000140003a10 <__pformat_efloat>:
   140003a10:	56                   	push   rsi
   140003a11:	53                   	push   rbx
   140003a12:	48 83 ec 58          	sub    rsp,0x58
   140003a16:	44 8b 42 10          	mov    r8d,DWORD PTR [rdx+0x10]
   140003a1a:	db 29                	fld    TBYTE PTR [rcx]
   140003a1c:	48 89 d3             	mov    rbx,rdx
   140003a1f:	45 85 c0             	test   r8d,r8d
   140003a22:	78 5c                	js     140003a80 <__pformat_efloat+0x70>
   140003a24:	41 83 c0 01          	add    r8d,0x1
   140003a28:	48 8d 44 24 48       	lea    rax,[rsp+0x48]
   140003a2d:	48 8d 54 24 30       	lea    rdx,[rsp+0x30]
   140003a32:	b9 02 00 00 00       	mov    ecx,0x2
   140003a37:	db 7c 24 30          	fstp   TBYTE PTR [rsp+0x30]
   140003a3b:	4c 8d 4c 24 4c       	lea    r9,[rsp+0x4c]
   140003a40:	48 89 44 24 20       	mov    QWORD PTR [rsp+0x20],rax
   140003a45:	e8 66 ec ff ff       	call   1400026b0 <__pformat_cvt>
   140003a4a:	44 8b 44 24 4c       	mov    r8d,DWORD PTR [rsp+0x4c]
   140003a4f:	48 89 c6             	mov    rsi,rax
   140003a52:	41 81 f8 00 80 ff ff 	cmp    r8d,0xffff8000
   140003a59:	74 35                	je     140003a90 <__pformat_efloat+0x80>
   140003a5b:	8b 4c 24 48          	mov    ecx,DWORD PTR [rsp+0x48]
   140003a5f:	49 89 d9             	mov    r9,rbx
   140003a62:	48 89 c2             	mov    rdx,rax
   140003a65:	e8 d6 fe ff ff       	call   140003940 <__pformat_emit_efloat>
   140003a6a:	48 89 f1             	mov    rcx,rsi
   140003a6d:	e8 ce 12 00 00       	call   140004d40 <__freedtoa>
   140003a72:	90                   	nop
   140003a73:	48 83 c4 58          	add    rsp,0x58
   140003a77:	5b                   	pop    rbx
   140003a78:	5e                   	pop    rsi
   140003a79:	c3                   	ret
   140003a7a:	66 0f 1f 44 00 00    	nop    WORD PTR [rax+rax*1+0x0]
   140003a80:	c7 42 10 06 00 00 00 	mov    DWORD PTR [rdx+0x10],0x6
   140003a87:	41 b8 07 00 00 00    	mov    r8d,0x7
   140003a8d:	eb 99                	jmp    140003a28 <__pformat_efloat+0x18>
   140003a8f:	90                   	nop
   140003a90:	8b 4c 24 48          	mov    ecx,DWORD PTR [rsp+0x48]
   140003a94:	49 89 d8             	mov    r8,rbx
   140003a97:	48 89 c2             	mov    rdx,rax
   140003a9a:	e8 91 f0 ff ff       	call   140002b30 <__pformat_emit_inf_or_nan>
   140003a9f:	48 89 f1             	mov    rcx,rsi
   140003aa2:	e8 99 12 00 00       	call   140004d40 <__freedtoa>
   140003aa7:	90                   	nop
   140003aa8:	48 83 c4 58          	add    rsp,0x58
   140003aac:	5b                   	pop    rbx
   140003aad:	5e                   	pop    rsi
   140003aae:	c3                   	ret
   140003aaf:	90                   	nop

0000000140003ab0 <__pformat_float>:
   140003ab0:	56                   	push   rsi
   140003ab1:	53                   	push   rbx
   140003ab2:	48 83 ec 58          	sub    rsp,0x58
   140003ab6:	44 8b 42 10          	mov    r8d,DWORD PTR [rdx+0x10]
   140003aba:	db 29                	fld    TBYTE PTR [rcx]
   140003abc:	48 89 d3             	mov    rbx,rdx
   140003abf:	45 85 c0             	test   r8d,r8d
   140003ac2:	79 0d                	jns    140003ad1 <__pformat_float+0x21>
   140003ac4:	c7 42 10 06 00 00 00 	mov    DWORD PTR [rdx+0x10],0x6
   140003acb:	41 b8 06 00 00 00    	mov    r8d,0x6
   140003ad1:	48 8d 44 24 48       	lea    rax,[rsp+0x48]
   140003ad6:	48 8d 54 24 30       	lea    rdx,[rsp+0x30]
   140003adb:	b9 03 00 00 00       	mov    ecx,0x3
   140003ae0:	db 7c 24 30          	fstp   TBYTE PTR [rsp+0x30]
   140003ae4:	4c 8d 4c 24 4c       	lea    r9,[rsp+0x4c]
   140003ae9:	48 89 44 24 20       	mov    QWORD PTR [rsp+0x20],rax
   140003aee:	e8 bd eb ff ff       	call   1400026b0 <__pformat_cvt>
   140003af3:	44 8b 44 24 4c       	mov    r8d,DWORD PTR [rsp+0x4c]
   140003af8:	48 89 c6             	mov    rsi,rax
   140003afb:	41 81 f8 00 80 ff ff 	cmp    r8d,0xffff8000
   140003b02:	74 6c                	je     140003b70 <__pformat_float+0xc0>
   140003b04:	8b 4c 24 48          	mov    ecx,DWORD PTR [rsp+0x48]
   140003b08:	48 89 c2             	mov    rdx,rax
   140003b0b:	49 89 d9             	mov    r9,rbx
   140003b0e:	e8 4d fa ff ff       	call   140003560 <__pformat_emit_float>
   140003b13:	8b 43 0c             	mov    eax,DWORD PTR [rbx+0xc]
   140003b16:	eb 1c                	jmp    140003b34 <__pformat_float+0x84>
   140003b18:	0f 1f 84 00 00 00 00 	nop    DWORD PTR [rax+rax*1+0x0]
   140003b1f:	00 
   140003b20:	48 63 43 24          	movsxd rax,DWORD PTR [rbx+0x24]
   140003b24:	c6 04 02 20          	mov    BYTE PTR [rdx+rax*1],0x20
   140003b28:	8b 53 24             	mov    edx,DWORD PTR [rbx+0x24]
   140003b2b:	8b 43 0c             	mov    eax,DWORD PTR [rbx+0xc]
   140003b2e:	83 c2 01             	add    edx,0x1
   140003b31:	89 53 24             	mov    DWORD PTR [rbx+0x24],edx
   140003b34:	89 c2                	mov    edx,eax
   140003b36:	83 e8 01             	sub    eax,0x1
   140003b39:	89 43 0c             	mov    DWORD PTR [rbx+0xc],eax
   140003b3c:	85 d2                	test   edx,edx
   140003b3e:	7e 3f                	jle    140003b7f <__pformat_float+0xcf>
   140003b40:	8b 4b 08             	mov    ecx,DWORD PTR [rbx+0x8]
   140003b43:	f6 c5 40             	test   ch,0x40
   140003b46:	75 08                	jne    140003b50 <__pformat_float+0xa0>
   140003b48:	8b 53 24             	mov    edx,DWORD PTR [rbx+0x24]
   140003b4b:	39 53 28             	cmp    DWORD PTR [rbx+0x28],edx
   140003b4e:	7e de                	jle    140003b2e <__pformat_float+0x7e>
   140003b50:	48 8b 13             	mov    rdx,QWORD PTR [rbx]
   140003b53:	80 e5 20             	and    ch,0x20
   140003b56:	74 c8                	je     140003b20 <__pformat_float+0x70>
   140003b58:	b9 20 00 00 00       	mov    ecx,0x20
   140003b5d:	e8 5e 40 00 00       	call   140007bc0 <fputc>
   140003b62:	8b 53 24             	mov    edx,DWORD PTR [rbx+0x24]
   140003b65:	8b 43 0c             	mov    eax,DWORD PTR [rbx+0xc]
   140003b68:	eb c4                	jmp    140003b2e <__pformat_float+0x7e>
   140003b6a:	66 0f 1f 44 00 00    	nop    WORD PTR [rax+rax*1+0x0]
   140003b70:	8b 4c 24 48          	mov    ecx,DWORD PTR [rsp+0x48]
   140003b74:	49 89 d8             	mov    r8,rbx
   140003b77:	48 89 c2             	mov    rdx,rax
   140003b7a:	e8 b1 ef ff ff       	call   140002b30 <__pformat_emit_inf_or_nan>
   140003b7f:	48 89 f1             	mov    rcx,rsi
   140003b82:	e8 b9 11 00 00       	call   140004d40 <__freedtoa>
   140003b87:	90                   	nop
   140003b88:	48 83 c4 58          	add    rsp,0x58
   140003b8c:	5b                   	pop    rbx
   140003b8d:	5e                   	pop    rsi
   140003b8e:	c3                   	ret
   140003b8f:	90                   	nop

0000000140003b90 <__pformat_gfloat>:
   140003b90:	57                   	push   rdi
   140003b91:	56                   	push   rsi
   140003b92:	53                   	push   rbx
   140003b93:	48 83 ec 50          	sub    rsp,0x50
   140003b97:	44 8b 42 10          	mov    r8d,DWORD PTR [rdx+0x10]
   140003b9b:	db 29                	fld    TBYTE PTR [rcx]
   140003b9d:	48 89 d3             	mov    rbx,rdx
   140003ba0:	45 85 c0             	test   r8d,r8d
   140003ba3:	0f 88 ff 00 00 00    	js     140003ca8 <__pformat_gfloat+0x118>
   140003ba9:	0f 84 e1 00 00 00    	je     140003c90 <__pformat_gfloat+0x100>
   140003baf:	48 8d 44 24 48       	lea    rax,[rsp+0x48]
   140003bb4:	48 8d 54 24 30       	lea    rdx,[rsp+0x30]
   140003bb9:	b9 02 00 00 00       	mov    ecx,0x2
   140003bbe:	db 7c 24 30          	fstp   TBYTE PTR [rsp+0x30]
   140003bc2:	4c 8d 4c 24 4c       	lea    r9,[rsp+0x4c]
   140003bc7:	48 89 44 24 20       	mov    QWORD PTR [rsp+0x20],rax
   140003bcc:	e8 df ea ff ff       	call   1400026b0 <__pformat_cvt>
   140003bd1:	8b 7c 24 4c          	mov    edi,DWORD PTR [rsp+0x4c]
   140003bd5:	48 89 c6             	mov    rsi,rax
   140003bd8:	81 ff 00 80 ff ff    	cmp    edi,0xffff8000
   140003bde:	0f 84 dc 00 00 00    	je     140003cc0 <__pformat_gfloat+0x130>
   140003be4:	8b 43 08             	mov    eax,DWORD PTR [rbx+0x8]
   140003be7:	25 00 08 00 00       	and    eax,0x800
   140003bec:	83 ff fd             	cmp    edi,0xfffffffd
   140003bef:	7c 5f                	jl     140003c50 <__pformat_gfloat+0xc0>
   140003bf1:	8b 53 10             	mov    edx,DWORD PTR [rbx+0x10]
   140003bf4:	39 d7                	cmp    edi,edx
   140003bf6:	7f 58                	jg     140003c50 <__pformat_gfloat+0xc0>
   140003bf8:	85 c0                	test   eax,eax
   140003bfa:	0f 84 e0 00 00 00    	je     140003ce0 <__pformat_gfloat+0x150>
   140003c00:	29 fa                	sub    edx,edi
   140003c02:	89 53 10             	mov    DWORD PTR [rbx+0x10],edx
   140003c05:	8b 4c 24 48          	mov    ecx,DWORD PTR [rsp+0x48]
   140003c09:	49 89 d9             	mov    r9,rbx
   140003c0c:	41 89 f8             	mov    r8d,edi
   140003c0f:	48 89 f2             	mov    rdx,rsi
   140003c12:	e8 49 f9 ff ff       	call   140003560 <__pformat_emit_float>
   140003c17:	eb 14                	jmp    140003c2d <__pformat_gfloat+0x9d>
   140003c19:	0f 1f 80 00 00 00 00 	nop    DWORD PTR [rax+0x0]
   140003c20:	48 89 da             	mov    rdx,rbx
   140003c23:	b9 20 00 00 00       	mov    ecx,0x20
   140003c28:	e8 73 eb ff ff       	call   1400027a0 <__pformat_putc>
   140003c2d:	8b 43 0c             	mov    eax,DWORD PTR [rbx+0xc]
   140003c30:	8d 50 ff             	lea    edx,[rax-0x1]
   140003c33:	89 53 0c             	mov    DWORD PTR [rbx+0xc],edx
   140003c36:	85 c0                	test   eax,eax
   140003c38:	7f e6                	jg     140003c20 <__pformat_gfloat+0x90>
   140003c3a:	48 89 f1             	mov    rcx,rsi
   140003c3d:	e8 fe 10 00 00       	call   140004d40 <__freedtoa>
   140003c42:	90                   	nop
   140003c43:	48 83 c4 50          	add    rsp,0x50
   140003c47:	5b                   	pop    rbx
   140003c48:	5e                   	pop    rsi
   140003c49:	5f                   	pop    rdi
   140003c4a:	c3                   	ret
   140003c4b:	0f 1f 44 00 00       	nop    DWORD PTR [rax+rax*1+0x0]
   140003c50:	85 c0                	test   eax,eax
   140003c52:	75 34                	jne    140003c88 <__pformat_gfloat+0xf8>
   140003c54:	48 89 f1             	mov    rcx,rsi
   140003c57:	e8 ac 3f 00 00       	call   140007c08 <strlen>
   140003c5c:	83 e8 01             	sub    eax,0x1
   140003c5f:	89 43 10             	mov    DWORD PTR [rbx+0x10],eax
   140003c62:	8b 4c 24 48          	mov    ecx,DWORD PTR [rsp+0x48]
   140003c66:	49 89 d9             	mov    r9,rbx
   140003c69:	41 89 f8             	mov    r8d,edi
   140003c6c:	48 89 f2             	mov    rdx,rsi
   140003c6f:	e8 cc fc ff ff       	call   140003940 <__pformat_emit_efloat>
   140003c74:	48 89 f1             	mov    rcx,rsi
   140003c77:	e8 c4 10 00 00       	call   140004d40 <__freedtoa>
   140003c7c:	90                   	nop
   140003c7d:	48 83 c4 50          	add    rsp,0x50
   140003c81:	5b                   	pop    rbx
   140003c82:	5e                   	pop    rsi
   140003c83:	5f                   	pop    rdi
   140003c84:	c3                   	ret
   140003c85:	0f 1f 00             	nop    DWORD PTR [rax]
   140003c88:	8b 43 10             	mov    eax,DWORD PTR [rbx+0x10]
   140003c8b:	83 e8 01             	sub    eax,0x1
   140003c8e:	eb cf                	jmp    140003c5f <__pformat_gfloat+0xcf>
   140003c90:	c7 42 10 01 00 00 00 	mov    DWORD PTR [rdx+0x10],0x1
   140003c97:	41 b8 01 00 00 00    	mov    r8d,0x1
   140003c9d:	e9 0d ff ff ff       	jmp    140003baf <__pformat_gfloat+0x1f>
   140003ca2:	66 0f 1f 44 00 00    	nop    WORD PTR [rax+rax*1+0x0]
   140003ca8:	c7 42 10 06 00 00 00 	mov    DWORD PTR [rdx+0x10],0x6
   140003caf:	41 b8 06 00 00 00    	mov    r8d,0x6
   140003cb5:	e9 f5 fe ff ff       	jmp    140003baf <__pformat_gfloat+0x1f>
   140003cba:	66 0f 1f 44 00 00    	nop    WORD PTR [rax+rax*1+0x0]
   140003cc0:	8b 4c 24 48          	mov    ecx,DWORD PTR [rsp+0x48]
   140003cc4:	49 89 d8             	mov    r8,rbx
   140003cc7:	48 89 c2             	mov    rdx,rax
   140003cca:	e8 61 ee ff ff       	call   140002b30 <__pformat_emit_inf_or_nan>
   140003ccf:	48 89 f1             	mov    rcx,rsi
   140003cd2:	e8 69 10 00 00       	call   140004d40 <__freedtoa>
   140003cd7:	90                   	nop
   140003cd8:	48 83 c4 50          	add    rsp,0x50
   140003cdc:	5b                   	pop    rbx
   140003cdd:	5e                   	pop    rsi
   140003cde:	5f                   	pop    rdi
   140003cdf:	c3                   	ret
   140003ce0:	48 89 f1             	mov    rcx,rsi
   140003ce3:	e8 20 3f 00 00       	call   140007c08 <strlen>
   140003ce8:	29 f8                	sub    eax,edi
   140003cea:	89 43 10             	mov    DWORD PTR [rbx+0x10],eax
   140003ced:	0f 89 12 ff ff ff    	jns    140003c05 <__pformat_gfloat+0x75>
   140003cf3:	8b 53 0c             	mov    edx,DWORD PTR [rbx+0xc]
   140003cf6:	85 d2                	test   edx,edx
   140003cf8:	0f 8e 07 ff ff ff    	jle    140003c05 <__pformat_gfloat+0x75>
   140003cfe:	01 d0                	add    eax,edx
   140003d00:	89 43 0c             	mov    DWORD PTR [rbx+0xc],eax
   140003d03:	e9 fd fe ff ff       	jmp    140003c05 <__pformat_gfloat+0x75>
   140003d08:	0f 1f 84 00 00 00 00 	nop    DWORD PTR [rax+rax*1+0x0]
   140003d0f:	00 

0000000140003d10 <__pformat_emit_xfloat.isra.0>:
   140003d10:	41 55                	push   r13
   140003d12:	41 54                	push   r12
   140003d14:	55                   	push   rbp
   140003d15:	57                   	push   rdi
   140003d16:	56                   	push   rsi
   140003d17:	53                   	push   rbx
   140003d18:	48 83 ec 58          	sub    rsp,0x58
   140003d1c:	45 8b 50 10          	mov    r10d,DWORD PTR [r8+0x10]
   140003d20:	49 89 c9             	mov    r9,rcx
   140003d23:	4c 89 c3             	mov    rbx,r8
   140003d26:	66 85 d2             	test   dx,dx
   140003d29:	75 09                	jne    140003d34 <__pformat_emit_xfloat.isra.0+0x24>
   140003d2b:	48 85 c9             	test   rcx,rcx
   140003d2e:	0f 84 a4 00 00 00    	je     140003dd8 <__pformat_emit_xfloat.isra.0+0xc8>
   140003d34:	44 8d 42 fd          	lea    r8d,[rdx-0x3]
   140003d38:	41 83 fa 0e          	cmp    r10d,0xe
   140003d3c:	0f 86 a3 00 00 00    	jbe    140003de5 <__pformat_emit_xfloat.isra.0+0xd5>
   140003d42:	49 0f bf e8          	movsx  rbp,r8w
   140003d46:	ba 10 00 00 00       	mov    edx,0x10
   140003d4b:	4d 85 c9             	test   r9,r9
   140003d4e:	0f 84 ec 03 00 00    	je     140004140 <__pformat_emit_xfloat.isra.0+0x430>
   140003d54:	8b 4b 08             	mov    ecx,DWORD PTR [rbx+0x8]
   140003d57:	48 8d 7c 24 30       	lea    rdi,[rsp+0x30]
   140003d5c:	48 89 fe             	mov    rsi,rdi
   140003d5f:	41 89 cb             	mov    r11d,ecx
   140003d62:	41 89 cc             	mov    r12d,ecx
   140003d65:	41 83 e3 20          	and    r11d,0x20
   140003d69:	41 81 e4 00 08 00 00 	and    r12d,0x800
   140003d70:	eb 2d                	jmp    140003d9f <__pformat_emit_xfloat.isra.0+0x8f>
   140003d72:	66 0f 1f 44 00 00    	nop    WORD PTR [rax+rax*1+0x0]
   140003d78:	4c 39 d7             	cmp    rdi,r10
   140003d7b:	72 0b                	jb     140003d88 <__pformat_emit_xfloat.isra.0+0x78>
   140003d7d:	8b 73 10             	mov    esi,DWORD PTR [rbx+0x10]
   140003d80:	85 f6                	test   esi,esi
   140003d82:	0f 88 68 03 00 00    	js     1400040f0 <__pformat_emit_xfloat.isra.0+0x3e0>
   140003d88:	83 c0 30             	add    eax,0x30
   140003d8b:	41 88 02             	mov    BYTE PTR [r10],al
   140003d8e:	49 8d 72 01          	lea    rsi,[r10+0x1]
   140003d92:	49 c1 e9 04          	shr    r9,0x4
   140003d96:	83 ea 01             	sub    edx,0x1
   140003d99:	0f 84 e1 01 00 00    	je     140003f80 <__pformat_emit_xfloat.isra.0+0x270>
   140003d9f:	44 89 c8             	mov    eax,r9d
   140003da2:	83 e0 0f             	and    eax,0xf
   140003da5:	83 fa 01             	cmp    edx,0x1
   140003da8:	0f 84 92 01 00 00    	je     140003f40 <__pformat_emit_xfloat.isra.0+0x230>
   140003dae:	44 8b 53 10          	mov    r10d,DWORD PTR [rbx+0x10]
   140003db2:	45 85 d2             	test   r10d,r10d
   140003db5:	7e 08                	jle    140003dbf <__pformat_emit_xfloat.isra.0+0xaf>
   140003db7:	41 83 ea 01          	sub    r10d,0x1
   140003dbb:	44 89 53 10          	mov    DWORD PTR [rbx+0x10],r10d
   140003dbf:	49 89 f2             	mov    r10,rsi
   140003dc2:	85 c0                	test   eax,eax
   140003dc4:	74 b2                	je     140003d78 <__pformat_emit_xfloat.isra.0+0x68>
   140003dc6:	83 f8 09             	cmp    eax,0x9
   140003dc9:	76 bd                	jbe    140003d88 <__pformat_emit_xfloat.isra.0+0x78>
   140003dcb:	83 c0 37             	add    eax,0x37
   140003dce:	44 09 d8             	or     eax,r11d
   140003dd1:	eb b8                	jmp    140003d8b <__pformat_emit_xfloat.isra.0+0x7b>
   140003dd3:	0f 1f 44 00 00       	nop    DWORD PTR [rax+rax*1+0x0]
   140003dd8:	41 83 fa 0e          	cmp    r10d,0xe
   140003ddc:	0f 87 46 03 00 00    	ja     140004128 <__pformat_emit_xfloat.isra.0+0x418>
   140003de2:	45 31 c0             	xor    r8d,r8d
   140003de5:	b9 0e 00 00 00       	mov    ecx,0xe
   140003dea:	b8 04 00 00 00       	mov    eax,0x4
   140003def:	49 d1 e9             	shr    r9,1
   140003df2:	44 29 d1             	sub    ecx,r10d
   140003df5:	c1 e1 02             	shl    ecx,0x2
   140003df8:	48 d3 e0             	shl    rax,cl
   140003dfb:	b9 0f 00 00 00       	mov    ecx,0xf
   140003e00:	44 29 d1             	sub    ecx,r10d
   140003e03:	c1 e1 02             	shl    ecx,0x2
   140003e06:	4c 01 c8             	add    rax,r9
   140003e09:	0f 88 11 01 00 00    	js     140003f20 <__pformat_emit_xfloat.isra.0+0x210>
   140003e0f:	48 01 c0             	add    rax,rax
   140003e12:	48 d3 e8             	shr    rax,cl
   140003e15:	49 89 c1             	mov    r9,rax
   140003e18:	48 85 c0             	test   rax,rax
   140003e1b:	0f 85 0d 01 00 00    	jne    140003f2e <__pformat_emit_xfloat.isra.0+0x21e>
   140003e21:	45 85 d2             	test   r10d,r10d
   140003e24:	0f 85 04 01 00 00    	jne    140003f2e <__pformat_emit_xfloat.isra.0+0x21e>
   140003e2a:	8b 4b 08             	mov    ecx,DWORD PTR [rbx+0x8]
   140003e2d:	49 0f bf e8          	movsx  rbp,r8w
   140003e31:	48 8d 7c 24 30       	lea    rdi,[rsp+0x30]
   140003e36:	48 89 f8             	mov    rax,rdi
   140003e39:	f6 c5 08             	test   ch,0x8
   140003e3c:	74 0a                	je     140003e48 <__pformat_emit_xfloat.isra.0+0x138>
   140003e3e:	c6 44 24 30 2e       	mov    BYTE PTR [rsp+0x30],0x2e
   140003e43:	48 8d 44 24 31       	lea    rax,[rsp+0x31]
   140003e48:	44 8b 53 0c          	mov    r10d,DWORD PTR [rbx+0xc]
   140003e4c:	c6 00 30             	mov    BYTE PTR [rax],0x30
   140003e4f:	48 8d 70 01          	lea    rsi,[rax+0x1]
   140003e53:	41 bc 02 00 00 00    	mov    r12d,0x2
   140003e59:	45 85 d2             	test   r10d,r10d
   140003e5c:	0f 8f 3a 01 00 00    	jg     140003f9c <__pformat_emit_xfloat.isra.0+0x28c>
   140003e62:	f6 c1 80             	test   cl,0x80
   140003e65:	0f 85 f5 01 00 00    	jne    140004060 <__pformat_emit_xfloat.isra.0+0x350>
   140003e6b:	f6 c5 01             	test   ch,0x1
   140003e6e:	0f 85 9c 02 00 00    	jne    140004110 <__pformat_emit_xfloat.isra.0+0x400>
   140003e74:	83 e1 40             	and    ecx,0x40
   140003e77:	0f 85 e3 02 00 00    	jne    140004160 <__pformat_emit_xfloat.isra.0+0x450>
   140003e7d:	48 89 da             	mov    rdx,rbx
   140003e80:	b9 30 00 00 00       	mov    ecx,0x30
   140003e85:	e8 16 e9 ff ff       	call   1400027a0 <__pformat_putc>
   140003e8a:	8b 4b 08             	mov    ecx,DWORD PTR [rbx+0x8]
   140003e8d:	48 89 da             	mov    rdx,rbx
   140003e90:	83 e1 20             	and    ecx,0x20
   140003e93:	83 c9 58             	or     ecx,0x58
   140003e96:	e8 05 e9 ff ff       	call   1400027a0 <__pformat_putc>
   140003e9b:	8b 43 0c             	mov    eax,DWORD PTR [rbx+0xc]
   140003e9e:	85 c0                	test   eax,eax
   140003ea0:	7e 28                	jle    140003eca <__pformat_emit_xfloat.isra.0+0x1ba>
   140003ea2:	f6 43 09 02          	test   BYTE PTR [rbx+0x9],0x2
   140003ea6:	74 22                	je     140003eca <__pformat_emit_xfloat.isra.0+0x1ba>
   140003ea8:	83 e8 01             	sub    eax,0x1
   140003eab:	89 43 0c             	mov    DWORD PTR [rbx+0xc],eax
   140003eae:	66 90                	xchg   ax,ax
   140003eb0:	48 89 da             	mov    rdx,rbx
   140003eb3:	b9 30 00 00 00       	mov    ecx,0x30
   140003eb8:	e8 e3 e8 ff ff       	call   1400027a0 <__pformat_putc>
   140003ebd:	8b 43 0c             	mov    eax,DWORD PTR [rbx+0xc]
   140003ec0:	8d 50 ff             	lea    edx,[rax-0x1]
   140003ec3:	89 53 0c             	mov    DWORD PTR [rbx+0xc],edx
   140003ec6:	85 c0                	test   eax,eax
   140003ec8:	7f e6                	jg     140003eb0 <__pformat_emit_xfloat.isra.0+0x1a0>
   140003eca:	4c 8d 6c 24 2e       	lea    r13,[rsp+0x2e]
   140003ecf:	48 39 f7             	cmp    rdi,rsi
   140003ed2:	72 27                	jb     140003efb <__pformat_emit_xfloat.isra.0+0x1eb>
   140003ed4:	e9 ac 01 00 00       	jmp    140004085 <__pformat_emit_xfloat.isra.0+0x375>
   140003ed9:	0f 1f 80 00 00 00 00 	nop    DWORD PTR [rax+0x0]
   140003ee0:	0f b7 43 20          	movzx  eax,WORD PTR [rbx+0x20]
   140003ee4:	66 89 44 24 2e       	mov    WORD PTR [rsp+0x2e],ax
   140003ee9:	66 85 c0             	test   ax,ax
   140003eec:	0f 85 e6 01 00 00    	jne    1400040d8 <__pformat_emit_xfloat.isra.0+0x3c8>
   140003ef2:	48 39 fe             	cmp    rsi,rdi
   140003ef5:	0f 84 8a 01 00 00    	je     140004085 <__pformat_emit_xfloat.isra.0+0x375>
   140003efb:	0f be 4e ff          	movsx  ecx,BYTE PTR [rsi-0x1]
   140003eff:	48 83 ee 01          	sub    rsi,0x1
   140003f03:	83 f9 2e             	cmp    ecx,0x2e
   140003f06:	0f 84 bc 01 00 00    	je     1400040c8 <__pformat_emit_xfloat.isra.0+0x3b8>
   140003f0c:	83 f9 2c             	cmp    ecx,0x2c
   140003f0f:	74 cf                	je     140003ee0 <__pformat_emit_xfloat.isra.0+0x1d0>
   140003f11:	48 89 da             	mov    rdx,rbx
   140003f14:	e8 87 e8 ff ff       	call   1400027a0 <__pformat_putc>
   140003f19:	eb d7                	jmp    140003ef2 <__pformat_emit_xfloat.isra.0+0x1e2>
   140003f1b:	0f 1f 44 00 00       	nop    DWORD PTR [rax+rax*1+0x0]
   140003f20:	48 c1 e8 03          	shr    rax,0x3
   140003f24:	41 83 c0 04          	add    r8d,0x4
   140003f28:	48 d3 e8             	shr    rax,cl
   140003f2b:	49 89 c1             	mov    r9,rax
   140003f2e:	41 8d 52 01          	lea    edx,[r10+0x1]
   140003f32:	49 0f bf e8          	movsx  rbp,r8w
   140003f36:	e9 19 fe ff ff       	jmp    140003d54 <__pformat_emit_xfloat.isra.0+0x44>
   140003f3b:	0f 1f 44 00 00       	nop    DWORD PTR [rax+rax*1+0x0]
   140003f40:	48 39 f7             	cmp    rdi,rsi
   140003f43:	72 13                	jb     140003f58 <__pformat_emit_xfloat.isra.0+0x248>
   140003f45:	45 85 e4             	test   r12d,r12d
   140003f48:	75 0e                	jne    140003f58 <__pformat_emit_xfloat.isra.0+0x248>
   140003f4a:	44 8b 53 10          	mov    r10d,DWORD PTR [rbx+0x10]
   140003f4e:	45 85 d2             	test   r10d,r10d
   140003f51:	7e 15                	jle    140003f68 <__pformat_emit_xfloat.isra.0+0x258>
   140003f53:	0f 1f 44 00 00       	nop    DWORD PTR [rax+rax*1+0x0]
   140003f58:	c6 06 2e             	mov    BYTE PTR [rsi],0x2e
   140003f5b:	4c 8d 56 01          	lea    r10,[rsi+0x1]
   140003f5f:	e9 5e fe ff ff       	jmp    140003dc2 <__pformat_emit_xfloat.isra.0+0xb2>
   140003f64:	0f 1f 40 00          	nop    DWORD PTR [rax+0x0]
   140003f68:	85 c0                	test   eax,eax
   140003f6a:	0f 85 20 02 00 00    	jne    140004190 <__pformat_emit_xfloat.isra.0+0x480>
   140003f70:	45 85 d2             	test   r10d,r10d
   140003f73:	75 0b                	jne    140003f80 <__pformat_emit_xfloat.isra.0+0x270>
   140003f75:	c6 06 30             	mov    BYTE PTR [rsi],0x30
   140003f78:	48 83 c6 01          	add    rsi,0x1
   140003f7c:	0f 1f 40 00          	nop    DWORD PTR [rax+0x0]
   140003f80:	48 39 fe             	cmp    rsi,rdi
   140003f83:	0f 84 ef 01 00 00    	je     140004178 <__pformat_emit_xfloat.isra.0+0x468>
   140003f89:	44 8b 53 0c          	mov    r10d,DWORD PTR [rbx+0xc]
   140003f8d:	41 bc 02 00 00 00    	mov    r12d,0x2
   140003f93:	45 85 d2             	test   r10d,r10d
   140003f96:	0f 8e c6 fe ff ff    	jle    140003e62 <__pformat_emit_xfloat.isra.0+0x152>
   140003f9c:	8b 53 10             	mov    edx,DWORD PTR [rbx+0x10]
   140003f9f:	49 89 f1             	mov    r9,rsi
   140003fa2:	41 0f bf c0          	movsx  eax,r8w
   140003fa6:	49 29 f9             	sub    r9,rdi
   140003fa9:	46 8d 1c 0a          	lea    r11d,[rdx+r9*1]
   140003fad:	85 d2                	test   edx,edx
   140003faf:	89 ca                	mov    edx,ecx
   140003fb1:	45 0f 4f cb          	cmovg  r9d,r11d
   140003fb5:	81 e2 c0 01 00 00    	and    edx,0x1c0
   140003fbb:	83 fa 01             	cmp    edx,0x1
   140003fbe:	49 0f bf d0          	movsx  rdx,r8w
   140003fc2:	41 83 d9 fa          	sbb    r9d,0xfffffffa
   140003fc6:	48 69 d2 67 66 66 66 	imul   rdx,rdx,0x66666667
   140003fcd:	c1 f8 1f             	sar    eax,0x1f
   140003fd0:	45 89 cb             	mov    r11d,r9d
   140003fd3:	48 c1 fa 22          	sar    rdx,0x22
   140003fd7:	29 c2                	sub    edx,eax
   140003fd9:	74 2e                	je     140004009 <__pformat_emit_xfloat.isra.0+0x2f9>
   140003fdb:	0f 1f 44 00 00       	nop    DWORD PTR [rax+rax*1+0x0]
   140003fe0:	48 63 c2             	movsxd rax,edx
   140003fe3:	c1 fa 1f             	sar    edx,0x1f
   140003fe6:	41 83 c3 01          	add    r11d,0x1
   140003fea:	48 69 c0 67 66 66 66 	imul   rax,rax,0x66666667
   140003ff1:	48 c1 f8 22          	sar    rax,0x22
   140003ff5:	29 d0                	sub    eax,edx
   140003ff7:	89 c2                	mov    edx,eax
   140003ff9:	75 e5                	jne    140003fe0 <__pformat_emit_xfloat.isra.0+0x2d0>
   140003ffb:	45 89 dc             	mov    r12d,r11d
   140003ffe:	45 29 cc             	sub    r12d,r9d
   140004001:	41 83 c4 02          	add    r12d,0x2
   140004005:	45 0f bf e4          	movsx  r12d,r12w
   140004009:	45 39 da             	cmp    r10d,r11d
   14000400c:	0f 8e ee 00 00 00    	jle    140004100 <__pformat_emit_xfloat.isra.0+0x3f0>
   140004012:	45 29 da             	sub    r10d,r11d
   140004015:	f6 c5 06             	test   ch,0x6
   140004018:	0f 85 e8 00 00 00    	jne    140004106 <__pformat_emit_xfloat.isra.0+0x3f6>
   14000401e:	41 83 ea 01          	sub    r10d,0x1
   140004022:	44 89 53 0c          	mov    DWORD PTR [rbx+0xc],r10d
   140004026:	66 2e 0f 1f 84 00 00 	cs nop WORD PTR [rax+rax*1+0x0]
   14000402d:	00 00 00 
   140004030:	48 89 da             	mov    rdx,rbx
   140004033:	b9 20 00 00 00       	mov    ecx,0x20
   140004038:	e8 63 e7 ff ff       	call   1400027a0 <__pformat_putc>
   14000403d:	8b 43 0c             	mov    eax,DWORD PTR [rbx+0xc]
   140004040:	8d 50 ff             	lea    edx,[rax-0x1]
   140004043:	89 53 0c             	mov    DWORD PTR [rbx+0xc],edx
   140004046:	85 c0                	test   eax,eax
   140004048:	7f e6                	jg     140004030 <__pformat_emit_xfloat.isra.0+0x320>
   14000404a:	8b 4b 08             	mov    ecx,DWORD PTR [rbx+0x8]
   14000404d:	f6 c1 80             	test   cl,0x80
   140004050:	0f 84 15 fe ff ff    	je     140003e6b <__pformat_emit_xfloat.isra.0+0x15b>
   140004056:	66 2e 0f 1f 84 00 00 	cs nop WORD PTR [rax+rax*1+0x0]
   14000405d:	00 00 00 
   140004060:	48 89 da             	mov    rdx,rbx
   140004063:	b9 2d 00 00 00       	mov    ecx,0x2d
   140004068:	e8 33 e7 ff ff       	call   1400027a0 <__pformat_putc>
   14000406d:	e9 0b fe ff ff       	jmp    140003e7d <__pformat_emit_xfloat.isra.0+0x16d>
   140004072:	66 0f 1f 44 00 00    	nop    WORD PTR [rax+rax*1+0x0]
   140004078:	48 89 da             	mov    rdx,rbx
   14000407b:	b9 30 00 00 00       	mov    ecx,0x30
   140004080:	e8 1b e7 ff ff       	call   1400027a0 <__pformat_putc>
   140004085:	8b 43 10             	mov    eax,DWORD PTR [rbx+0x10]
   140004088:	8d 50 ff             	lea    edx,[rax-0x1]
   14000408b:	89 53 10             	mov    DWORD PTR [rbx+0x10],edx
   14000408e:	85 c0                	test   eax,eax
   140004090:	7f e6                	jg     140004078 <__pformat_emit_xfloat.isra.0+0x368>
   140004092:	8b 4b 08             	mov    ecx,DWORD PTR [rbx+0x8]
   140004095:	48 89 da             	mov    rdx,rbx
   140004098:	83 e1 20             	and    ecx,0x20
   14000409b:	83 c9 50             	or     ecx,0x50
   14000409e:	e8 fd e6 ff ff       	call   1400027a0 <__pformat_putc>
   1400040a3:	44 01 63 0c          	add    DWORD PTR [rbx+0xc],r12d
   1400040a7:	48 89 da             	mov    rdx,rbx
   1400040aa:	48 89 e9             	mov    rcx,rbp
   1400040ad:	81 4b 08 c0 01 00 00 	or     DWORD PTR [rbx+0x8],0x1c0
   1400040b4:	48 83 c4 58          	add    rsp,0x58
   1400040b8:	5b                   	pop    rbx
   1400040b9:	5e                   	pop    rsi
   1400040ba:	5f                   	pop    rdi
   1400040bb:	5d                   	pop    rbp
   1400040bc:	41 5c                	pop    r12
   1400040be:	41 5d                	pop    r13
   1400040c0:	e9 bb ef ff ff       	jmp    140003080 <__pformat_int.isra.0>
   1400040c5:	0f 1f 00             	nop    DWORD PTR [rax]
   1400040c8:	48 89 d9             	mov    rcx,rbx
   1400040cb:	e8 40 f3 ff ff       	call   140003410 <__pformat_emit_radix_point>
   1400040d0:	e9 1d fe ff ff       	jmp    140003ef2 <__pformat_emit_xfloat.isra.0+0x1e2>
   1400040d5:	0f 1f 00             	nop    DWORD PTR [rax]
   1400040d8:	49 89 d8             	mov    r8,rbx
   1400040db:	ba 01 00 00 00       	mov    edx,0x1
   1400040e0:	4c 89 e9             	mov    rcx,r13
   1400040e3:	e8 18 e7 ff ff       	call   140002800 <__pformat_wputchars>
   1400040e8:	e9 05 fe ff ff       	jmp    140003ef2 <__pformat_emit_xfloat.isra.0+0x1e2>
   1400040ed:	0f 1f 00             	nop    DWORD PTR [rax]
   1400040f0:	4c 89 d6             	mov    rsi,r10
   1400040f3:	e9 9a fc ff ff       	jmp    140003d92 <__pformat_emit_xfloat.isra.0+0x82>
   1400040f8:	0f 1f 84 00 00 00 00 	nop    DWORD PTR [rax+rax*1+0x0]
   1400040ff:	00 
   140004100:	41 ba ff ff ff ff    	mov    r10d,0xffffffff
   140004106:	44 89 53 0c          	mov    DWORD PTR [rbx+0xc],r10d
   14000410a:	e9 53 fd ff ff       	jmp    140003e62 <__pformat_emit_xfloat.isra.0+0x152>
   14000410f:	90                   	nop
   140004110:	48 89 da             	mov    rdx,rbx
   140004113:	b9 2b 00 00 00       	mov    ecx,0x2b
   140004118:	e8 83 e6 ff ff       	call   1400027a0 <__pformat_putc>
   14000411d:	e9 5b fd ff ff       	jmp    140003e7d <__pformat_emit_xfloat.isra.0+0x16d>
   140004122:	66 0f 1f 44 00 00    	nop    WORD PTR [rax+rax*1+0x0]
   140004128:	45 85 d2             	test   r10d,r10d
   14000412b:	7e 6b                	jle    140004198 <__pformat_emit_xfloat.isra.0+0x488>
   14000412d:	31 ed                	xor    ebp,ebp
   14000412f:	45 31 c0             	xor    r8d,r8d
   140004132:	ba 10 00 00 00       	mov    edx,0x10
   140004137:	45 31 c9             	xor    r9d,r9d
   14000413a:	e9 15 fc ff ff       	jmp    140003d54 <__pformat_emit_xfloat.isra.0+0x44>
   14000413f:	90                   	nop
   140004140:	45 85 d2             	test   r10d,r10d
   140004143:	0f 8f 0b fc ff ff    	jg     140003d54 <__pformat_emit_xfloat.isra.0+0x44>
   140004149:	8b 4b 08             	mov    ecx,DWORD PTR [rbx+0x8]
   14000414c:	48 8d 7c 24 30       	lea    rdi,[rsp+0x30]
   140004151:	e9 e0 fc ff ff       	jmp    140003e36 <__pformat_emit_xfloat.isra.0+0x126>
   140004156:	66 2e 0f 1f 84 00 00 	cs nop WORD PTR [rax+rax*1+0x0]
   14000415d:	00 00 00 
   140004160:	48 89 da             	mov    rdx,rbx
   140004163:	b9 20 00 00 00       	mov    ecx,0x20
   140004168:	e8 33 e6 ff ff       	call   1400027a0 <__pformat_putc>
   14000416d:	e9 0b fd ff ff       	jmp    140003e7d <__pformat_emit_xfloat.isra.0+0x16d>
   140004172:	66 0f 1f 44 00 00    	nop    WORD PTR [rax+rax*1+0x0]
   140004178:	8b 43 10             	mov    eax,DWORD PTR [rbx+0x10]
   14000417b:	85 c0                	test   eax,eax
   14000417d:	0f 8f bb fc ff ff    	jg     140003e3e <__pformat_emit_xfloat.isra.0+0x12e>
   140004183:	e9 ae fc ff ff       	jmp    140003e36 <__pformat_emit_xfloat.isra.0+0x126>
   140004188:	0f 1f 84 00 00 00 00 	nop    DWORD PTR [rax+rax*1+0x0]
   14000418f:	00 
   140004190:	49 89 f2             	mov    r10,rsi
   140004193:	e9 2e fc ff ff       	jmp    140003dc6 <__pformat_emit_xfloat.isra.0+0xb6>
   140004198:	41 8b 48 08          	mov    ecx,DWORD PTR [r8+0x8]
   14000419c:	31 ed                	xor    ebp,ebp
   14000419e:	45 31 c0             	xor    r8d,r8d
   1400041a1:	48 8d 7c 24 30       	lea    rdi,[rsp+0x30]
   1400041a6:	e9 8b fc ff ff       	jmp    140003e36 <__pformat_emit_xfloat.isra.0+0x126>
   1400041ab:	0f 1f 44 00 00       	nop    DWORD PTR [rax+rax*1+0x0]

00000001400041b0 <__mingw_pformat>:
   1400041b0:	41 57                	push   r15
   1400041b2:	41 56                	push   r14
   1400041b4:	41 55                	push   r13
   1400041b6:	41 54                	push   r12
   1400041b8:	55                   	push   rbp
   1400041b9:	57                   	push   rdi
   1400041ba:	56                   	push   rsi
   1400041bb:	53                   	push   rbx
   1400041bc:	48 81 ec a8 00 00 00 	sub    rsp,0xa8
   1400041c3:	4c 8b ac 24 10 01 00 	mov    r13,QWORD PTR [rsp+0x110]
   1400041ca:	00 
   1400041cb:	89 cf                	mov    edi,ecx
   1400041cd:	48 89 d5             	mov    rbp,rdx
   1400041d0:	44 89 c3             	mov    ebx,r8d
   1400041d3:	4c 89 ce             	mov    rsi,r9
   1400041d6:	e8 9d 39 00 00       	call   140007b78 <_errno>
   1400041db:	0f be 0e             	movsx  ecx,BYTE PTR [rsi]
   1400041de:	81 e7 00 60 00 00    	and    edi,0x6000
   1400041e4:	31 d2                	xor    edx,edx
   1400041e6:	8b 00                	mov    eax,DWORD PTR [rax]
   1400041e8:	89 9c 24 98 00 00 00 	mov    DWORD PTR [rsp+0x98],ebx
   1400041ef:	48 8d 5e 01          	lea    rbx,[rsi+0x1]
   1400041f3:	48 89 6c 24 70       	mov    QWORD PTR [rsp+0x70],rbp
   1400041f8:	89 44 24 30          	mov    DWORD PTR [rsp+0x30],eax
   1400041fc:	48 b8 ff ff ff ff fd 	movabs rax,0xfffffffdffffffff
   140004203:	ff ff ff 
   140004206:	48 89 84 24 80 00 00 	mov    QWORD PTR [rsp+0x80],rax
   14000420d:	00 
   14000420e:	31 c0                	xor    eax,eax
   140004210:	66 89 84 24 88 00 00 	mov    WORD PTR [rsp+0x88],ax
   140004217:	00 
   140004218:	89 c8                	mov    eax,ecx
   14000421a:	89 7c 24 78          	mov    DWORD PTR [rsp+0x78],edi
   14000421e:	c7 44 24 7c ff ff ff 	mov    DWORD PTR [rsp+0x7c],0xffffffff
   140004225:	ff 
   140004226:	c7 84 24 8c 00 00 00 	mov    DWORD PTR [rsp+0x8c],0x0
   14000422d:	00 00 00 00 
   140004231:	66 89 94 24 90 00 00 	mov    WORD PTR [rsp+0x90],dx
   140004238:	00 
   140004239:	c7 84 24 94 00 00 00 	mov    DWORD PTR [rsp+0x94],0x0
   140004240:	00 00 00 00 
   140004244:	c7 84 24 9c 00 00 00 	mov    DWORD PTR [rsp+0x9c],0xffffffff
   14000424b:	ff ff ff ff 
   14000424f:	85 c9                	test   ecx,ecx
   140004251:	0f 84 10 01 00 00    	je     140004367 <__mingw_pformat+0x1b7>
   140004257:	4c 8d 7c 24 7c       	lea    r15,[rsp+0x7c]
   14000425c:	4c 8d 25 0d 51 00 00 	lea    r12,[rip+0x510d]        # 140009370 <.rdata+0x20>
   140004263:	eb 49                	jmp    1400042ae <__mingw_pformat+0xfe>
   140004265:	0f 1f 00             	nop    DWORD PTR [rax]
   140004268:	8b 54 24 78          	mov    edx,DWORD PTR [rsp+0x78]
   14000426c:	8b b4 24 94 00 00 00 	mov    esi,DWORD PTR [rsp+0x94]
   140004273:	f6 c6 40             	test   dh,0x40
   140004276:	75 09                	jne    140004281 <__mingw_pformat+0xd1>
   140004278:	39 b4 24 98 00 00 00 	cmp    DWORD PTR [rsp+0x98],esi
   14000427f:	7e 11                	jle    140004292 <__mingw_pformat+0xe2>
   140004281:	4c 8b 44 24 70       	mov    r8,QWORD PTR [rsp+0x70]
   140004286:	80 e6 20             	and    dh,0x20
   140004289:	75 6d                	jne    1400042f8 <__mingw_pformat+0x148>
   14000428b:	48 63 d6             	movsxd rdx,esi
   14000428e:	41 88 04 10          	mov    BYTE PTR [r8+rdx*1],al
   140004292:	83 c6 01             	add    esi,0x1
   140004295:	89 b4 24 94 00 00 00 	mov    DWORD PTR [rsp+0x94],esi
   14000429c:	0f b6 03             	movzx  eax,BYTE PTR [rbx]
   14000429f:	48 83 c3 01          	add    rbx,0x1
   1400042a3:	0f be c8             	movsx  ecx,al
   1400042a6:	85 c9                	test   ecx,ecx
   1400042a8:	0f 84 b2 00 00 00    	je     140004360 <__mingw_pformat+0x1b0>
   1400042ae:	83 f9 25             	cmp    ecx,0x25
   1400042b1:	75 b5                	jne    140004268 <__mingw_pformat+0xb8>
   1400042b3:	0f b6 03             	movzx  eax,BYTE PTR [rbx]
   1400042b6:	89 7c 24 78          	mov    DWORD PTR [rsp+0x78],edi
   1400042ba:	48 c7 44 24 7c ff ff 	mov    QWORD PTR [rsp+0x7c],0xffffffffffffffff
   1400042c1:	ff ff 
   1400042c3:	84 c0                	test   al,al
   1400042c5:	0f 84 95 00 00 00    	je     140004360 <__mingw_pformat+0x1b0>
   1400042cb:	48 89 de             	mov    rsi,rbx
   1400042ce:	4d 89 fb             	mov    r11,r15
   1400042d1:	45 31 d2             	xor    r10d,r10d
   1400042d4:	45 31 f6             	xor    r14d,r14d
   1400042d7:	8d 50 e0             	lea    edx,[rax-0x20]
   1400042da:	48 8d 6e 01          	lea    rbp,[rsi+0x1]
   1400042de:	0f be c8             	movsx  ecx,al
   1400042e1:	80 fa 5a             	cmp    dl,0x5a
   1400042e4:	77 22                	ja     140004308 <__mingw_pformat+0x158>
   1400042e6:	0f b6 d2             	movzx  edx,dl
   1400042e9:	49 63 14 94          	movsxd rdx,DWORD PTR [r12+rdx*4]
   1400042ed:	4c 01 e2             	add    rdx,r12
   1400042f0:	ff e2                	jmp    rdx
   1400042f2:	66 0f 1f 44 00 00    	nop    WORD PTR [rax+rax*1+0x0]
   1400042f8:	4c 89 c2             	mov    rdx,r8
   1400042fb:	e8 c0 38 00 00       	call   140007bc0 <fputc>
   140004300:	eb 90                	jmp    140004292 <__mingw_pformat+0xe2>
   140004302:	66 0f 1f 44 00 00    	nop    WORD PTR [rax+rax*1+0x0]
   140004308:	83 e8 30             	sub    eax,0x30
   14000430b:	3c 09                	cmp    al,0x9
   14000430d:	0f 87 14 02 00 00    	ja     140004527 <__mingw_pformat+0x377>
   140004313:	41 83 fe 03          	cmp    r14d,0x3
   140004317:	0f 87 0a 02 00 00    	ja     140004527 <__mingw_pformat+0x377>
   14000431d:	45 85 f6             	test   r14d,r14d
   140004320:	0f 85 43 07 00 00    	jne    140004a69 <__mingw_pformat+0x8b9>
   140004326:	41 be 01 00 00 00    	mov    r14d,0x1
   14000432c:	4d 85 db             	test   r11,r11
   14000432f:	74 1f                	je     140004350 <__mingw_pformat+0x1a0>
   140004331:	41 8b 03             	mov    eax,DWORD PTR [r11]
   140004334:	85 c0                	test   eax,eax
   140004336:	0f 88 e6 07 00 00    	js     140004b22 <__mingw_pformat+0x972>
   14000433c:	8d 04 80             	lea    eax,[rax+rax*4]
   14000433f:	8d 44 41 d0          	lea    eax,[rcx+rax*2-0x30]
   140004343:	41 89 03             	mov    DWORD PTR [r11],eax
   140004346:	66 2e 0f 1f 84 00 00 	cs nop WORD PTR [rax+rax*1+0x0]
   14000434d:	00 00 00 
   140004350:	0f b6 46 01          	movzx  eax,BYTE PTR [rsi+0x1]
   140004354:	48 89 ee             	mov    rsi,rbp
   140004357:	84 c0                	test   al,al
   140004359:	0f 85 78 ff ff ff    	jne    1400042d7 <__mingw_pformat+0x127>
   14000435f:	90                   	nop
   140004360:	8b 8c 24 94 00 00 00 	mov    ecx,DWORD PTR [rsp+0x94]
   140004367:	89 c8                	mov    eax,ecx
   140004369:	48 81 c4 a8 00 00 00 	add    rsp,0xa8
   140004370:	5b                   	pop    rbx
   140004371:	5e                   	pop    rsi
   140004372:	5f                   	pop    rdi
   140004373:	5d                   	pop    rbp
   140004374:	41 5c                	pop    r12
   140004376:	41 5d                	pop    r13
   140004378:	41 5e                	pop    r14
   14000437a:	41 5f                	pop    r15
   14000437c:	c3                   	ret
   14000437d:	0f 1f 00             	nop    DWORD PTR [rax]
   140004380:	81 64 24 78 ff fe ff 	and    DWORD PTR [rsp+0x78],0xfffffeff
   140004387:	ff 
   140004388:	41 83 fa 03          	cmp    r10d,0x3
   14000438c:	0f 84 d0 07 00 00    	je     140004b62 <__mingw_pformat+0x9b2>
   140004392:	41 83 fa 02          	cmp    r10d,0x2
   140004396:	0f 84 59 08 00 00    	je     140004bf5 <__mingw_pformat+0xa45>
   14000439c:	41 8b 45 00          	mov    eax,DWORD PTR [r13+0x0]
   1400043a0:	41 83 fa 01          	cmp    r10d,0x1
   1400043a4:	0f 84 68 07 00 00    	je     140004b12 <__mingw_pformat+0x962>
   1400043aa:	89 c2                	mov    edx,eax
   1400043ac:	41 83 fa 05          	cmp    r10d,0x5
   1400043b0:	0f b6 c0             	movzx  eax,al
   1400043b3:	48 0f 45 c2          	cmovne rax,rdx
   1400043b7:	48 89 44 24 60       	mov    QWORD PTR [rsp+0x60],rax
   1400043bc:	83 f9 75             	cmp    ecx,0x75
   1400043bf:	0f 84 1e 08 00 00    	je     140004be3 <__mingw_pformat+0xa33>
   1400043c5:	4c 8d 44 24 70       	lea    r8,[rsp+0x70]
   1400043ca:	48 89 c2             	mov    rdx,rax
   1400043cd:	e8 fe e7 ff ff       	call   140002bd0 <__pformat_xint.isra.0>
   1400043d2:	e9 a9 02 00 00       	jmp    140004680 <__mingw_pformat+0x4d0>
   1400043d7:	66 0f 1f 84 00 00 00 	nop    WORD PTR [rax+rax*1+0x0]
   1400043de:	00 00 
   1400043e0:	0f b6 46 01          	movzx  eax,BYTE PTR [rsi+0x1]
   1400043e4:	41 ba 03 00 00 00    	mov    r10d,0x3
   1400043ea:	48 89 ee             	mov    rsi,rbp
   1400043ed:	41 be 04 00 00 00    	mov    r14d,0x4
   1400043f3:	e9 5f ff ff ff       	jmp    140004357 <__mingw_pformat+0x1a7>
   1400043f8:	81 4c 24 78 80 00 00 	or     DWORD PTR [rsp+0x78],0x80
   1400043ff:	00 
   140004400:	49 8d 5d 08          	lea    rbx,[r13+0x8]
   140004404:	41 83 fa 03          	cmp    r10d,0x3
   140004408:	0f 84 4b 07 00 00    	je     140004b59 <__mingw_pformat+0x9a9>
   14000440e:	49 63 4d 00          	movsxd rcx,DWORD PTR [r13+0x0]
   140004412:	41 83 fa 02          	cmp    r10d,0x2
   140004416:	74 16                	je     14000442e <__mingw_pformat+0x27e>
   140004418:	41 83 fa 01          	cmp    r10d,0x1
   14000441c:	0f 84 e7 06 00 00    	je     140004b09 <__mingw_pformat+0x959>
   140004422:	48 0f be c1          	movsx  rax,cl
   140004426:	41 83 fa 05          	cmp    r10d,0x5
   14000442a:	48 0f 44 c8          	cmove  rcx,rax
   14000442e:	48 8d 54 24 70       	lea    rdx,[rsp+0x70]
   140004433:	49 89 dd             	mov    r13,rbx
   140004436:	48 89 eb             	mov    rbx,rbp
   140004439:	e8 42 ec ff ff       	call   140003080 <__pformat_int.isra.0>
   14000443e:	e9 59 fe ff ff       	jmp    14000429c <__mingw_pformat+0xec>
   140004443:	45 85 f6             	test   r14d,r14d
   140004446:	75 0a                	jne    140004452 <__mingw_pformat+0x2a2>
   140004448:	39 7c 24 78          	cmp    DWORD PTR [rsp+0x78],edi
   14000444c:	0f 84 85 06 00 00    	je     140004ad7 <__mingw_pformat+0x927>
   140004452:	49 8b 55 00          	mov    rdx,QWORD PTR [r13+0x0]
   140004456:	49 8d 5d 08          	lea    rbx,[r13+0x8]
   14000445a:	4c 8d 44 24 70       	lea    r8,[rsp+0x70]
   14000445f:	b9 78 00 00 00       	mov    ecx,0x78
   140004464:	49 89 dd             	mov    r13,rbx
   140004467:	48 89 eb             	mov    rbx,rbp
   14000446a:	e8 61 e7 ff ff       	call   140002bd0 <__pformat_xint.isra.0>
   14000446f:	e9 28 fe ff ff       	jmp    14000429c <__mingw_pformat+0xec>
   140004474:	0f b6 46 01          	movzx  eax,BYTE PTR [rsi+0x1]
   140004478:	3c 68                	cmp    al,0x68
   14000447a:	0f 84 31 07 00 00    	je     140004bb1 <__mingw_pformat+0xa01>
   140004480:	48 89 ee             	mov    rsi,rbp
   140004483:	41 ba 01 00 00 00    	mov    r10d,0x1
   140004489:	41 be 04 00 00 00    	mov    r14d,0x4
   14000448f:	e9 c3 fe ff ff       	jmp    140004357 <__mingw_pformat+0x1a7>
   140004494:	8b 4c 24 30          	mov    ecx,DWORD PTR [rsp+0x30]
   140004498:	48 89 eb             	mov    rbx,rbp
   14000449b:	e8 60 37 00 00       	call   140007c00 <strerror>
   1400044a0:	48 8d 54 24 70       	lea    rdx,[rsp+0x70]
   1400044a5:	48 89 c1             	mov    rcx,rax
   1400044a8:	e8 33 e6 ff ff       	call   140002ae0 <__pformat_puts>
   1400044ad:	e9 ea fd ff ff       	jmp    14000429c <__mingw_pformat+0xec>
   1400044b2:	49 8b 55 00          	mov    rdx,QWORD PTR [r13+0x0]
   1400044b6:	48 63 84 24 94 00 00 	movsxd rax,DWORD PTR [rsp+0x94]
   1400044bd:	00 
   1400044be:	41 83 fa 05          	cmp    r10d,0x5
   1400044c2:	0f 84 e2 06 00 00    	je     140004baa <__mingw_pformat+0x9fa>
   1400044c8:	41 83 fa 01          	cmp    r10d,0x1
   1400044cc:	0f 84 2c 07 00 00    	je     140004bfe <__mingw_pformat+0xa4e>
   1400044d2:	41 83 fa 02          	cmp    r10d,0x2
   1400044d6:	74 0a                	je     1400044e2 <__mingw_pformat+0x332>
   1400044d8:	41 83 fa 03          	cmp    r10d,0x3
   1400044dc:	0f 84 38 06 00 00    	je     140004b1a <__mingw_pformat+0x96a>
   1400044e2:	89 02                	mov    DWORD PTR [rdx],eax
   1400044e4:	e9 97 01 00 00       	jmp    140004680 <__mingw_pformat+0x4d0>
   1400044e9:	0f b6 46 01          	movzx  eax,BYTE PTR [rsi+0x1]
   1400044ed:	3c 6c                	cmp    al,0x6c
   1400044ef:	0f 84 d5 06 00 00    	je     140004bca <__mingw_pformat+0xa1a>
   1400044f5:	48 89 ee             	mov    rsi,rbp
   1400044f8:	41 ba 02 00 00 00    	mov    r10d,0x2
   1400044fe:	41 be 04 00 00 00    	mov    r14d,0x4
   140004504:	e9 4e fe ff ff       	jmp    140004357 <__mingw_pformat+0x1a7>
   140004509:	0f b6 46 01          	movzx  eax,BYTE PTR [rsi+0x1]
   14000450d:	3c 36                	cmp    al,0x36
   14000450f:	0f 84 72 06 00 00    	je     140004b87 <__mingw_pformat+0x9d7>
   140004515:	3c 33                	cmp    al,0x33
   140004517:	0f 85 9b 05 00 00    	jne    140004ab8 <__mingw_pformat+0x908>
   14000451d:	80 7e 02 32          	cmp    BYTE PTR [rsi+0x2],0x32
   140004521:	0f 84 f5 06 00 00    	je     140004c1c <__mingw_pformat+0xa6c>
   140004527:	48 8d 54 24 70       	lea    rdx,[rsp+0x70]
   14000452c:	b9 25 00 00 00       	mov    ecx,0x25
   140004531:	e8 6a e2 ff ff       	call   1400027a0 <__pformat_putc>
   140004536:	e9 61 fd ff ff       	jmp    14000429c <__mingw_pformat+0xec>
   14000453b:	0f 1f 44 00 00       	nop    DWORD PTR [rax+rax*1+0x0]
   140004540:	0f b6 46 01          	movzx  eax,BYTE PTR [rsi+0x1]
   140004544:	83 4c 24 78 04       	or     DWORD PTR [rsp+0x78],0x4
   140004549:	48 89 ee             	mov    rsi,rbp
   14000454c:	41 be 04 00 00 00    	mov    r14d,0x4
   140004552:	e9 00 fe ff ff       	jmp    140004357 <__mingw_pformat+0x1a7>
   140004557:	8b 44 24 78          	mov    eax,DWORD PTR [rsp+0x78]
   14000455b:	49 8b 4d 00          	mov    rcx,QWORD PTR [r13+0x0]
   14000455f:	83 c8 20             	or     eax,0x20
   140004562:	89 44 24 78          	mov    DWORD PTR [rsp+0x78],eax
   140004566:	a8 04                	test   al,0x4
   140004568:	0f 84 fa 01 00 00    	je     140004768 <__mingw_pformat+0x5b8>
   14000456e:	8b 59 08             	mov    ebx,DWORD PTR [rcx+0x8]
   140004571:	48 8b 09             	mov    rcx,QWORD PTR [rcx]
   140004574:	49 89 c9             	mov    r9,rcx
   140004577:	44 0f bf d3          	movsx  r10d,bx
   14000457b:	48 89 da             	mov    rdx,rbx
   14000457e:	49 c1 e9 20          	shr    r9,0x20
   140004582:	47 8d 1c 12          	lea    r11d,[r10+r10*1]
   140004586:	41 81 e1 ff ff ff 7f 	and    r9d,0x7fffffff
   14000458d:	45 0f b7 db          	movzx  r11d,r11w
   140004591:	41 09 c9             	or     r9d,ecx
   140004594:	45 89 c8             	mov    r8d,r9d
   140004597:	41 f7 d8             	neg    r8d
   14000459a:	45 09 c8             	or     r8d,r9d
   14000459d:	41 c1 e8 1f          	shr    r8d,0x1f
   1400045a1:	45 09 d8             	or     r8d,r11d
   1400045a4:	41 bb fe ff 00 00    	mov    r11d,0xfffe
   1400045aa:	45 29 c3             	sub    r11d,r8d
   1400045ad:	41 c1 eb 10          	shr    r11d,0x10
   1400045b1:	0f 85 c4 04 00 00    	jne    140004a7b <__mingw_pformat+0x8cb>
   1400045b7:	66 85 db             	test   bx,bx
   1400045ba:	0f 88 0c 05 00 00    	js     140004acc <__mingw_pformat+0x91c>
   1400045c0:	66 81 e2 ff 7f       	and    dx,0x7fff
   1400045c5:	0f 84 dd 04 00 00    	je     140004aa8 <__mingw_pformat+0x8f8>
   1400045cb:	66 81 fa ff 7f       	cmp    dx,0x7fff
   1400045d0:	75 09                	jne    1400045db <__mingw_pformat+0x42b>
   1400045d2:	45 85 c9             	test   r9d,r9d
   1400045d5:	0f 84 7d 06 00 00    	je     140004c58 <__mingw_pformat+0xaa8>
   1400045db:	66 81 ea ff 3f       	sub    dx,0x3fff
   1400045e0:	e9 22 04 00 00       	jmp    140004a07 <__mingw_pformat+0x857>
   1400045e5:	41 83 ea 02          	sub    r10d,0x2
   1400045e9:	41 8b 45 00          	mov    eax,DWORD PTR [r13+0x0]
   1400045ed:	49 8d 5d 08          	lea    rbx,[r13+0x8]
   1400045f1:	c7 84 24 80 00 00 00 	mov    DWORD PTR [rsp+0x80],0xffffffff
   1400045f8:	ff ff ff ff 
   1400045fc:	41 83 fa 01          	cmp    r10d,0x1
   140004600:	0f 86 09 02 00 00    	jbe    14000480f <__mingw_pformat+0x65f>
   140004606:	48 8d 4c 24 60       	lea    rcx,[rsp+0x60]
   14000460b:	4c 8d 44 24 70       	lea    r8,[rsp+0x70]
   140004610:	88 44 24 60          	mov    BYTE PTR [rsp+0x60],al
   140004614:	49 89 dd             	mov    r13,rbx
   140004617:	ba 01 00 00 00       	mov    edx,0x1
   14000461c:	48 89 eb             	mov    rbx,rbp
   14000461f:	e8 6c e3 ff ff       	call   140002990 <__pformat_putchars>
   140004624:	e9 73 fc ff ff       	jmp    14000429c <__mingw_pformat+0xec>
   140004629:	41 83 ea 02          	sub    r10d,0x2
   14000462d:	49 8b 4d 00          	mov    rcx,QWORD PTR [r13+0x0]
   140004631:	49 8d 5d 08          	lea    rbx,[r13+0x8]
   140004635:	41 83 fa 01          	cmp    r10d,0x1
   140004639:	0f 86 db 03 00 00    	jbe    140004a1a <__mingw_pformat+0x86a>
   14000463f:	48 8d 54 24 70       	lea    rdx,[rsp+0x70]
   140004644:	e8 97 e4 ff ff       	call   140002ae0 <__pformat_puts>
   140004649:	49 89 dd             	mov    r13,rbx
   14000464c:	48 89 eb             	mov    rbx,rbp
   14000464f:	e9 48 fc ff ff       	jmp    14000429c <__mingw_pformat+0xec>
   140004654:	8b 44 24 78          	mov    eax,DWORD PTR [rsp+0x78]
   140004658:	49 8b 55 00          	mov    rdx,QWORD PTR [r13+0x0]
   14000465c:	83 c8 20             	or     eax,0x20
   14000465f:	89 44 24 78          	mov    DWORD PTR [rsp+0x78],eax
   140004663:	a8 04                	test   al,0x4
   140004665:	0f 84 3e 02 00 00    	je     1400048a9 <__mingw_pformat+0x6f9>
   14000466b:	db 2a                	fld    TBYTE PTR [rdx]
   14000466d:	48 8d 4c 24 40       	lea    rcx,[rsp+0x40]
   140004672:	48 8d 54 24 70       	lea    rdx,[rsp+0x70]
   140004677:	db 7c 24 40          	fstp   TBYTE PTR [rsp+0x40]
   14000467b:	e8 10 f5 ff ff       	call   140003b90 <__pformat_gfloat>
   140004680:	49 83 c5 08          	add    r13,0x8
   140004684:	48 89 eb             	mov    rbx,rbp
   140004687:	e9 10 fc ff ff       	jmp    14000429c <__mingw_pformat+0xec>
   14000468c:	8b 44 24 78          	mov    eax,DWORD PTR [rsp+0x78]
   140004690:	49 8b 55 00          	mov    rdx,QWORD PTR [r13+0x0]
   140004694:	83 c8 20             	or     eax,0x20
   140004697:	89 44 24 78          	mov    DWORD PTR [rsp+0x78],eax
   14000469b:	a8 04                	test   al,0x4
   14000469d:	0f 84 d5 01 00 00    	je     140004878 <__mingw_pformat+0x6c8>
   1400046a3:	db 2a                	fld    TBYTE PTR [rdx]
   1400046a5:	48 8d 4c 24 40       	lea    rcx,[rsp+0x40]
   1400046aa:	48 8d 54 24 70       	lea    rdx,[rsp+0x70]
   1400046af:	db 7c 24 40          	fstp   TBYTE PTR [rsp+0x40]
   1400046b3:	e8 f8 f3 ff ff       	call   140003ab0 <__pformat_float>
   1400046b8:	eb c6                	jmp    140004680 <__mingw_pformat+0x4d0>
   1400046ba:	8b 44 24 78          	mov    eax,DWORD PTR [rsp+0x78]
   1400046be:	49 8b 55 00          	mov    rdx,QWORD PTR [r13+0x0]
   1400046c2:	83 c8 20             	or     eax,0x20
   1400046c5:	89 44 24 78          	mov    DWORD PTR [rsp+0x78],eax
   1400046c9:	a8 04                	test   al,0x4
   1400046cb:	0f 84 76 01 00 00    	je     140004847 <__mingw_pformat+0x697>
   1400046d1:	db 2a                	fld    TBYTE PTR [rdx]
   1400046d3:	48 8d 4c 24 40       	lea    rcx,[rsp+0x40]
   1400046d8:	48 8d 54 24 70       	lea    rdx,[rsp+0x70]
   1400046dd:	db 7c 24 40          	fstp   TBYTE PTR [rsp+0x40]
   1400046e1:	e8 2a f3 ff ff       	call   140003a10 <__pformat_efloat>
   1400046e6:	eb 98                	jmp    140004680 <__mingw_pformat+0x4d0>
   1400046e8:	45 85 f6             	test   r14d,r14d
   1400046eb:	0f 85 5f fc ff ff    	jne    140004350 <__mingw_pformat+0x1a0>
   1400046f1:	0f b6 46 01          	movzx  eax,BYTE PTR [rsi+0x1]
   1400046f5:	83 4c 24 78 40       	or     DWORD PTR [rsp+0x78],0x40
   1400046fa:	48 89 ee             	mov    rsi,rbp
   1400046fd:	e9 55 fc ff ff       	jmp    140004357 <__mingw_pformat+0x1a7>
   140004702:	45 85 f6             	test   r14d,r14d
   140004705:	0f 85 45 fc ff ff    	jne    140004350 <__mingw_pformat+0x1a0>
   14000470b:	0f b6 46 01          	movzx  eax,BYTE PTR [rsi+0x1]
   14000470f:	81 4c 24 78 00 04 00 	or     DWORD PTR [rsp+0x78],0x400
   140004716:	00 
   140004717:	48 89 ee             	mov    rsi,rbp
   14000471a:	e9 38 fc ff ff       	jmp    140004357 <__mingw_pformat+0x1a7>
   14000471f:	41 83 fe 01          	cmp    r14d,0x1
   140004723:	0f 86 0b 04 00 00    	jbe    140004b34 <__mingw_pformat+0x984>
   140004729:	0f b6 46 01          	movzx  eax,BYTE PTR [rsi+0x1]
   14000472d:	41 be 04 00 00 00    	mov    r14d,0x4
   140004733:	48 89 ee             	mov    rsi,rbp
   140004736:	e9 1c fc ff ff       	jmp    140004357 <__mingw_pformat+0x1a7>
   14000473b:	45 85 f6             	test   r14d,r14d
   14000473e:	0f 85 16 03 00 00    	jne    140004a5a <__mingw_pformat+0x8aa>
   140004744:	0f b6 46 01          	movzx  eax,BYTE PTR [rsi+0x1]
   140004748:	81 4c 24 78 00 02 00 	or     DWORD PTR [rsp+0x78],0x200
   14000474f:	00 
   140004750:	48 89 ee             	mov    rsi,rbp
   140004753:	e9 ff fb ff ff       	jmp    140004357 <__mingw_pformat+0x1a7>
   140004758:	8b 44 24 78          	mov    eax,DWORD PTR [rsp+0x78]
   14000475c:	49 8b 4d 00          	mov    rcx,QWORD PTR [r13+0x0]
   140004760:	a8 04                	test   al,0x4
   140004762:	0f 85 06 fe ff ff    	jne    14000456e <__mingw_pformat+0x3be>
   140004768:	49 89 c8             	mov    r8,rcx
   14000476b:	89 ca                	mov    edx,ecx
   14000476d:	49 c1 e8 20          	shr    r8,0x20
   140004771:	f7 da                	neg    edx
   140004773:	09 ca                	or     edx,ecx
   140004775:	45 89 c1             	mov    r9d,r8d
   140004778:	c1 ea 1f             	shr    edx,0x1f
   14000477b:	41 81 e1 ff ff ff 7f 	and    r9d,0x7fffffff
   140004782:	44 09 ca             	or     edx,r9d
   140004785:	81 fa 00 00 f0 7f    	cmp    edx,0x7ff00000
